
Attacker.elf:     file format elf32-avr

Sections:
Idx Name          Size      VMA       LMA       File off  Algn
  0 .data         00000026  00800200  00001292  00001326  2**0
                  CONTENTS, ALLOC, LOAD, DATA
  1 .text         00001292  00000000  00000000  00000094  2**1
                  CONTENTS, ALLOC, LOAD, READONLY, CODE
  2 .bss          0000014b  00800226  00800226  0000134c  2**0
                  ALLOC
  3 .comment      0000005c  00000000  00000000  0000134c  2**0
                  CONTENTS, READONLY
  4 .debug_aranges 00000108  00000000  00000000  000013a8  2**0
                  CONTENTS, READONLY, DEBUGGING
  5 .debug_info   00001354  00000000  00000000  000014b0  2**0
                  CONTENTS, READONLY, DEBUGGING
  6 .debug_abbrev 000008c9  00000000  00000000  00002804  2**0
                  CONTENTS, READONLY, DEBUGGING
  7 .debug_line   000008ca  00000000  00000000  000030cd  2**0
                  CONTENTS, READONLY, DEBUGGING
  8 .debug_frame  000004ac  00000000  00000000  00003998  2**2
                  CONTENTS, READONLY, DEBUGGING
  9 .debug_str    00000698  00000000  00000000  00003e44  2**0
                  CONTENTS, READONLY, DEBUGGING
 10 .debug_loc    00000bca  00000000  00000000  000044dc  2**0
                  CONTENTS, READONLY, DEBUGGING
 11 .debug_ranges 00000050  00000000  00000000  000050a6  2**0
                  CONTENTS, READONLY, DEBUGGING

Disassembly of section .text:

00000000 <__vectors>:
       0:	8f c0       	rjmp	.+286    	; 0x120 <__ctors_end>
       2:	00 00       	nop
       4:	ab c0       	rjmp	.+342    	; 0x15c <__bad_interrupt>
       6:	00 00       	nop
       8:	a9 c0       	rjmp	.+338    	; 0x15c <__bad_interrupt>
       a:	00 00       	nop
       c:	a7 c0       	rjmp	.+334    	; 0x15c <__bad_interrupt>
       e:	00 00       	nop
      10:	a5 c0       	rjmp	.+330    	; 0x15c <__bad_interrupt>
      12:	00 00       	nop
      14:	a3 c0       	rjmp	.+326    	; 0x15c <__bad_interrupt>
      16:	00 00       	nop
      18:	a1 c0       	rjmp	.+322    	; 0x15c <__bad_interrupt>
      1a:	00 00       	nop
      1c:	9f c0       	rjmp	.+318    	; 0x15c <__bad_interrupt>
      1e:	00 00       	nop
      20:	9d c0       	rjmp	.+314    	; 0x15c <__bad_interrupt>
      22:	00 00       	nop
      24:	9b c0       	rjmp	.+310    	; 0x15c <__bad_interrupt>
      26:	00 00       	nop
      28:	99 c0       	rjmp	.+306    	; 0x15c <__bad_interrupt>
      2a:	00 00       	nop
      2c:	97 c0       	rjmp	.+302    	; 0x15c <__bad_interrupt>
      2e:	00 00       	nop
      30:	95 c0       	rjmp	.+298    	; 0x15c <__bad_interrupt>
      32:	00 00       	nop
      34:	93 c0       	rjmp	.+294    	; 0x15c <__bad_interrupt>
      36:	00 00       	nop
      38:	91 c0       	rjmp	.+290    	; 0x15c <__bad_interrupt>
      3a:	00 00       	nop
      3c:	8f c0       	rjmp	.+286    	; 0x15c <__bad_interrupt>
      3e:	00 00       	nop
      40:	8d c0       	rjmp	.+282    	; 0x15c <__bad_interrupt>
      42:	00 00       	nop
      44:	8b c0       	rjmp	.+278    	; 0x15c <__bad_interrupt>
      46:	00 00       	nop
      48:	89 c0       	rjmp	.+274    	; 0x15c <__bad_interrupt>
      4a:	00 00       	nop
      4c:	87 c0       	rjmp	.+270    	; 0x15c <__bad_interrupt>
      4e:	00 00       	nop
      50:	85 c0       	rjmp	.+266    	; 0x15c <__bad_interrupt>
      52:	00 00       	nop
      54:	83 c0       	rjmp	.+262    	; 0x15c <__bad_interrupt>
      56:	00 00       	nop
      58:	81 c0       	rjmp	.+258    	; 0x15c <__bad_interrupt>
      5a:	00 00       	nop
      5c:	7f c0       	rjmp	.+254    	; 0x15c <__bad_interrupt>
      5e:	00 00       	nop
      60:	7d c0       	rjmp	.+250    	; 0x15c <__bad_interrupt>
      62:	00 00       	nop
      64:	7b c0       	rjmp	.+246    	; 0x15c <__bad_interrupt>
      66:	00 00       	nop
      68:	79 c0       	rjmp	.+242    	; 0x15c <__bad_interrupt>
      6a:	00 00       	nop
      6c:	77 c0       	rjmp	.+238    	; 0x15c <__bad_interrupt>
      6e:	00 00       	nop
      70:	75 c0       	rjmp	.+234    	; 0x15c <__bad_interrupt>
      72:	00 00       	nop
      74:	73 c0       	rjmp	.+230    	; 0x15c <__bad_interrupt>
      76:	00 00       	nop
      78:	71 c0       	rjmp	.+226    	; 0x15c <__bad_interrupt>
      7a:	00 00       	nop
      7c:	6f c0       	rjmp	.+222    	; 0x15c <__bad_interrupt>
      7e:	00 00       	nop
      80:	6d c0       	rjmp	.+218    	; 0x15c <__bad_interrupt>
      82:	00 00       	nop
      84:	6b c0       	rjmp	.+214    	; 0x15c <__bad_interrupt>
      86:	00 00       	nop
      88:	69 c0       	rjmp	.+210    	; 0x15c <__bad_interrupt>
      8a:	00 00       	nop
      8c:	67 c0       	rjmp	.+206    	; 0x15c <__bad_interrupt>
      8e:	00 00       	nop
      90:	65 c0       	rjmp	.+202    	; 0x15c <__bad_interrupt>
      92:	00 00       	nop
      94:	63 c0       	rjmp	.+198    	; 0x15c <__bad_interrupt>
      96:	00 00       	nop
      98:	61 c0       	rjmp	.+194    	; 0x15c <__bad_interrupt>
      9a:	00 00       	nop
      9c:	5f c0       	rjmp	.+190    	; 0x15c <__bad_interrupt>
      9e:	00 00       	nop
      a0:	5d c0       	rjmp	.+186    	; 0x15c <__bad_interrupt>
      a2:	00 00       	nop
      a4:	5b c0       	rjmp	.+182    	; 0x15c <__bad_interrupt>
      a6:	00 00       	nop
      a8:	59 c0       	rjmp	.+178    	; 0x15c <__bad_interrupt>
      aa:	00 00       	nop
      ac:	57 c0       	rjmp	.+174    	; 0x15c <__bad_interrupt>
      ae:	00 00       	nop
      b0:	55 c0       	rjmp	.+170    	; 0x15c <__bad_interrupt>
      b2:	00 00       	nop
      b4:	53 c0       	rjmp	.+166    	; 0x15c <__bad_interrupt>
      b6:	00 00       	nop
      b8:	51 c0       	rjmp	.+162    	; 0x15c <__bad_interrupt>
      ba:	00 00       	nop
      bc:	4f c0       	rjmp	.+158    	; 0x15c <__bad_interrupt>
      be:	00 00       	nop
      c0:	4d c0       	rjmp	.+154    	; 0x15c <__bad_interrupt>
      c2:	00 00       	nop
      c4:	4b c0       	rjmp	.+150    	; 0x15c <__bad_interrupt>
      c6:	00 00       	nop
      c8:	49 c0       	rjmp	.+146    	; 0x15c <__bad_interrupt>
      ca:	00 00       	nop
      cc:	47 c0       	rjmp	.+142    	; 0x15c <__bad_interrupt>
      ce:	00 00       	nop
      d0:	45 c0       	rjmp	.+138    	; 0x15c <__bad_interrupt>
      d2:	00 00       	nop
      d4:	43 c0       	rjmp	.+134    	; 0x15c <__bad_interrupt>
      d6:	00 00       	nop
      d8:	41 c0       	rjmp	.+130    	; 0x15c <__bad_interrupt>
      da:	00 00       	nop
      dc:	3f c0       	rjmp	.+126    	; 0x15c <__bad_interrupt>
      de:	00 00       	nop
      e0:	3d c0       	rjmp	.+122    	; 0x15c <__bad_interrupt>
      e2:	00 00       	nop
      e4:	3b c0       	rjmp	.+118    	; 0x15c <__bad_interrupt>
      e6:	00 00       	nop
      e8:	39 c0       	rjmp	.+114    	; 0x15c <__bad_interrupt>
      ea:	00 00       	nop
      ec:	37 c0       	rjmp	.+110    	; 0x15c <__bad_interrupt>
      ee:	00 00       	nop
      f0:	35 c0       	rjmp	.+106    	; 0x15c <__bad_interrupt>
      f2:	00 00       	nop
      f4:	33 c0       	rjmp	.+102    	; 0x15c <__bad_interrupt>
      f6:	00 00       	nop
      f8:	31 c0       	rjmp	.+98     	; 0x15c <__bad_interrupt>
      fa:	00 00       	nop
      fc:	2f c0       	rjmp	.+94     	; 0x15c <__bad_interrupt>
      fe:	00 00       	nop
     100:	2d c0       	rjmp	.+90     	; 0x15c <__bad_interrupt>
     102:	00 00       	nop
     104:	2b c0       	rjmp	.+86     	; 0x15c <__bad_interrupt>
     106:	00 00       	nop
     108:	29 c0       	rjmp	.+82     	; 0x15c <__bad_interrupt>
     10a:	00 00       	nop
     10c:	27 c0       	rjmp	.+78     	; 0x15c <__bad_interrupt>
     10e:	00 00       	nop
     110:	25 c0       	rjmp	.+74     	; 0x15c <__bad_interrupt>
     112:	00 00       	nop
     114:	23 c0       	rjmp	.+70     	; 0x15c <__bad_interrupt>
     116:	00 00       	nop
     118:	21 c0       	rjmp	.+66     	; 0x15c <__bad_interrupt>
     11a:	00 00       	nop
     11c:	1f c0       	rjmp	.+62     	; 0x15c <__bad_interrupt>
	...

00000120 <__ctors_end>:
     120:	11 24       	eor	r1, r1
     122:	1f be       	out	0x3f, r1	; 63
     124:	cf ef       	ldi	r28, 0xFF	; 255
     126:	d1 e4       	ldi	r29, 0x41	; 65
     128:	de bf       	out	0x3e, r29	; 62
     12a:	cd bf       	out	0x3d, r28	; 61

0000012c <__do_copy_data>:
     12c:	12 e0       	ldi	r17, 0x02	; 2
     12e:	a0 e0       	ldi	r26, 0x00	; 0
     130:	b2 e0       	ldi	r27, 0x02	; 2
     132:	e2 e9       	ldi	r30, 0x92	; 146
     134:	f2 e1       	ldi	r31, 0x12	; 18
     136:	00 e0       	ldi	r16, 0x00	; 0
     138:	0b bf       	out	0x3b, r16	; 59
     13a:	02 c0       	rjmp	.+4      	; 0x140 <__do_copy_data+0x14>
     13c:	07 90       	elpm	r0, Z+
     13e:	0d 92       	st	X+, r0
     140:	a6 32       	cpi	r26, 0x26	; 38
     142:	b1 07       	cpc	r27, r17
     144:	d9 f7       	brne	.-10     	; 0x13c <__do_copy_data+0x10>

00000146 <__do_clear_bss>:
     146:	23 e0       	ldi	r18, 0x03	; 3
     148:	a6 e2       	ldi	r26, 0x26	; 38
     14a:	b2 e0       	ldi	r27, 0x02	; 2
     14c:	01 c0       	rjmp	.+2      	; 0x150 <.do_clear_bss_start>

0000014e <.do_clear_bss_loop>:
     14e:	1d 92       	st	X+, r1

00000150 <.do_clear_bss_start>:
     150:	a1 37       	cpi	r26, 0x71	; 113
     152:	b2 07       	cpc	r27, r18
     154:	e1 f7       	brne	.-8      	; 0x14e <.do_clear_bss_loop>
     156:	b9 d2       	rcall	.+1394   	; 0x6ca <main>
     158:	0c 94 47 09 	jmp	0x128e	; 0x128e <_exit>

0000015c <__bad_interrupt>:
     15c:	51 cf       	rjmp	.-350    	; 0x0 <__vectors>

0000015e <button_init>:
     15e:	6d 98       	cbi	0x0d, 5	; 13
     160:	75 9a       	sbi	0x0e, 5	; 14
     162:	08 95       	ret

00000164 <button_pressed>:
     164:	81 e0       	ldi	r24, 0x01	; 1
     166:	65 99       	sbic	0x0c, 5	; 12
     168:	80 e0       	ldi	r24, 0x00	; 0
     16a:	08 95       	ret

0000016c <button_released>:
     16c:	fb df       	rcall	.-10     	; 0x164 <button_pressed>
     16e:	91 e0       	ldi	r25, 0x01	; 1
     170:	89 27       	eor	r24, r25
     172:	08 95       	ret

00000174 <leds_init>:
     174:	6a 9a       	sbi	0x0d, 2	; 13
     176:	6b 9a       	sbi	0x0d, 3	; 13
     178:	6c 9a       	sbi	0x0d, 4	; 13
     17a:	72 9a       	sbi	0x0e, 2	; 14
     17c:	73 9a       	sbi	0x0e, 3	; 14
     17e:	74 9a       	sbi	0x0e, 4	; 14
     180:	08 95       	ret

00000182 <leds_on>:
     182:	81 30       	cpi	r24, 0x01	; 1
     184:	11 f4       	brne	.+4      	; 0x18a <leds_on+0x8>
     186:	72 98       	cbi	0x0e, 2	; 14
     188:	08 95       	ret
     18a:	82 30       	cpi	r24, 0x02	; 2
     18c:	11 f4       	brne	.+4      	; 0x192 <leds_on+0x10>
     18e:	73 98       	cbi	0x0e, 3	; 14
     190:	08 95       	ret
     192:	83 30       	cpi	r24, 0x03	; 3
     194:	09 f4       	brne	.+2      	; 0x198 <leds_on+0x16>
     196:	74 98       	cbi	0x0e, 4	; 14
     198:	08 95       	ret

0000019a <leds_off>:
     19a:	81 30       	cpi	r24, 0x01	; 1
     19c:	11 f4       	brne	.+4      	; 0x1a2 <leds_off+0x8>
     19e:	72 9a       	sbi	0x0e, 2	; 14
     1a0:	08 95       	ret
     1a2:	82 30       	cpi	r24, 0x02	; 2
     1a4:	11 f4       	brne	.+4      	; 0x1aa <leds_off+0x10>
     1a6:	73 9a       	sbi	0x0e, 3	; 14
     1a8:	08 95       	ret
     1aa:	83 30       	cpi	r24, 0x03	; 3
     1ac:	09 f4       	brne	.+2      	; 0x1b0 <leds_off+0x16>
     1ae:	74 9a       	sbi	0x0e, 4	; 14
     1b0:	08 95       	ret

000001b2 <radio_init>:
     1b2:	ff 92       	push	r15
     1b4:	0f 93       	push	r16
     1b6:	1f 93       	push	r17
     1b8:	cf 93       	push	r28
     1ba:	df 93       	push	r29
     1bc:	08 2f       	mov	r16, r24
     1be:	19 2f       	mov	r17, r25
     1c0:	f6 2e       	mov	r15, r22
     1c2:	c9 e3       	ldi	r28, 0x39	; 57
     1c4:	d1 e0       	ldi	r29, 0x01	; 1
     1c6:	18 82       	st	Y, r1
     1c8:	86 e0       	ldi	r24, 0x06	; 6
     1ca:	90 e0       	ldi	r25, 0x00	; 0
     1cc:	be d3       	rcall	.+1916   	; 0x94a <hw_timer_wait_micro>
     1ce:	81 e0       	ldi	r24, 0x01	; 1
     1d0:	88 83       	st	Y, r24
     1d2:	80 91 41 01 	lds	r24, 0x0141
     1d6:	80 93 26 02 	sts	0x0226, r24
     1da:	88 23       	and	r24, r24
     1dc:	51 f4       	brne	.+20     	; 0x1f2 <radio_init+0x40>
     1de:	88 e0       	ldi	r24, 0x08	; 8
     1e0:	80 93 42 01 	sts	0x0142, r24
     1e4:	8e ef       	ldi	r24, 0xFE	; 254
     1e6:	91 e0       	ldi	r25, 0x01	; 1
     1e8:	b0 d3       	rcall	.+1888   	; 0x94a <hw_timer_wait_micro>
     1ea:	80 91 41 01 	lds	r24, 0x0141
     1ee:	80 93 26 02 	sts	0x0226, r24
     1f2:	8b e0       	ldi	r24, 0x0B	; 11
     1f4:	80 93 48 01 	sts	0x0148, r24
     1f8:	8f ef       	ldi	r24, 0xFF	; 255
     1fa:	80 93 4f 01 	sts	0x014F, r24
     1fe:	00 93 27 02 	sts	0x0227, r16
     202:	10 93 28 02 	sts	0x0228, r17
     206:	00 93 60 01 	sts	0x0160, r16
     20a:	10 93 61 01 	sts	0x0161, r17
     20e:	10 92 62 01 	sts	0x0162, r1
     212:	10 92 63 01 	sts	0x0163, r1
     216:	80 91 41 01 	lds	r24, 0x0141
     21a:	80 93 26 02 	sts	0x0226, r24
     21e:	f0 92 29 02 	sts	0x0229, r15
     222:	df 91       	pop	r29
     224:	cf 91       	pop	r28
     226:	1f 91       	pop	r17
     228:	0f 91       	pop	r16
     22a:	ff 90       	pop	r15
     22c:	08 95       	ret

0000022e <radio_start>:
     22e:	8f ef       	ldi	r24, 0xFF	; 255
     230:	80 93 4f 01 	sts	0x014F, r24
     234:	86 e0       	ldi	r24, 0x06	; 6
     236:	80 93 42 01 	sts	0x0142, r24
     23a:	e1 e4       	ldi	r30, 0x41	; 65
     23c:	f1 e0       	ldi	r31, 0x01	; 1
     23e:	80 81       	ld	r24, Z
     240:	8f 71       	andi	r24, 0x1F	; 31
     242:	86 30       	cpi	r24, 0x06	; 6
     244:	e1 f7       	brne	.-8      	; 0x23e <radio_start+0x10>
     246:	ec e4       	ldi	r30, 0x4C	; 76
     248:	f1 e0       	ldi	r31, 0x01	; 1
     24a:	80 81       	ld	r24, Z
     24c:	80 68       	ori	r24, 0x80	; 128
     24e:	80 83       	st	Z, r24
     250:	08 95       	ret

00000252 <radio_tx_done>:
     252:	80 91 2a 02 	lds	r24, 0x022A
     256:	10 92 2a 02 	sts	0x022A, r1
     25a:	08 95       	ret

0000025c <radio_send>:
     25c:	2f ef       	ldi	r18, 0xFF	; 255
     25e:	20 93 4f 01 	sts	0x014F, r18
     262:	20 91 41 01 	lds	r18, 0x0141
     266:	2f 71       	andi	r18, 0x1F	; 31
     268:	29 30       	cpi	r18, 0x09	; 9
     26a:	41 f0       	breq	.+16     	; 0x27c <radio_send+0x20>
     26c:	29 e0       	ldi	r18, 0x09	; 9
     26e:	20 93 42 01 	sts	0x0142, r18
     272:	e1 e4       	ldi	r30, 0x41	; 65
     274:	f1 e0       	ldi	r31, 0x01	; 1
     276:	20 81       	ld	r18, Z
     278:	29 30       	cpi	r18, 0x09	; 9
     27a:	e9 f7       	brne	.-6      	; 0x276 <radio_send+0x1a>
     27c:	26 2f       	mov	r18, r22
     27e:	23 5f       	subi	r18, 0xF3	; 243
     280:	20 93 80 01 	sts	0x0180, r18
     284:	20 e2       	ldi	r18, 0x20	; 32
     286:	20 93 81 01 	sts	0x0181, r18
     28a:	22 e2       	ldi	r18, 0x22	; 34
     28c:	20 93 82 01 	sts	0x0182, r18
     290:	21 e0       	ldi	r18, 0x01	; 1
     292:	20 93 83 01 	sts	0x0183, r18
     296:	10 92 84 01 	sts	0x0184, r1
     29a:	10 92 85 01 	sts	0x0185, r1
     29e:	50 93 86 01 	sts	0x0186, r21
     2a2:	40 93 87 01 	sts	0x0187, r20
     2a6:	10 92 88 01 	sts	0x0188, r1
     2aa:	10 92 89 01 	sts	0x0189, r1
     2ae:	20 91 28 02 	lds	r18, 0x0228
     2b2:	20 93 8a 01 	sts	0x018A, r18
     2b6:	20 91 27 02 	lds	r18, 0x0227
     2ba:	20 93 8b 01 	sts	0x018B, r18
     2be:	66 23       	and	r22, r22
     2c0:	91 f0       	breq	.+36     	; 0x2e6 <radio_send+0x8a>
     2c2:	a8 2f       	mov	r26, r24
     2c4:	b9 2f       	mov	r27, r25
     2c6:	61 50       	subi	r22, 0x01	; 1
     2c8:	70 e0       	ldi	r23, 0x00	; 0
     2ca:	cb 01       	movw	r24, r22
     2cc:	83 57       	subi	r24, 0x73	; 115
     2ce:	9e 4f       	sbci	r25, 0xFE	; 254
     2d0:	ec e8       	ldi	r30, 0x8C	; 140
     2d2:	f1 e0       	ldi	r31, 0x01	; 1
     2d4:	2d 91       	ld	r18, X+
     2d6:	21 93       	st	Z+, r18
     2d8:	e8 17       	cp	r30, r24
     2da:	f9 07       	cpc	r31, r25
     2dc:	d9 f7       	brne	.-10     	; 0x2d4 <radio_send+0x78>
     2de:	fb 01       	movw	r30, r22
     2e0:	e3 57       	subi	r30, 0x73	; 115
     2e2:	fe 4f       	sbci	r31, 0xFE	; 254
     2e4:	02 c0       	rjmp	.+4      	; 0x2ea <radio_send+0x8e>
     2e6:	ec e8       	ldi	r30, 0x8C	; 140
     2e8:	f1 e0       	ldi	r31, 0x01	; 1
     2ea:	10 82       	st	Z, r1
     2ec:	11 82       	std	Z+1, r1	; 0x01
     2ee:	82 e0       	ldi	r24, 0x02	; 2
     2f0:	80 93 42 01 	sts	0x0142, r24
     2f4:	ef e4       	ldi	r30, 0x4F	; 79
     2f6:	f1 e0       	ldi	r31, 0x01	; 1
     2f8:	80 81       	ld	r24, Z
     2fa:	86 ff       	sbrs	r24, 6
     2fc:	fd cf       	rjmp	.-6      	; 0x2f8 <radio_send+0x9c>
     2fe:	8f ef       	ldi	r24, 0xFF	; 255
     300:	80 93 4f 01 	sts	0x014F, r24
     304:	86 e0       	ldi	r24, 0x06	; 6
     306:	80 93 42 01 	sts	0x0142, r24
     30a:	e1 e4       	ldi	r30, 0x41	; 65
     30c:	f1 e0       	ldi	r31, 0x01	; 1
     30e:	80 81       	ld	r24, Z
     310:	8f 71       	andi	r24, 0x1F	; 31
     312:	86 30       	cpi	r24, 0x06	; 6
     314:	e1 f7       	brne	.-8      	; 0x30e <radio_send+0xb2>
     316:	81 e0       	ldi	r24, 0x01	; 1
     318:	80 93 2a 02 	sts	0x022A, r24
     31c:	80 91 41 01 	lds	r24, 0x0141
     320:	80 93 26 02 	sts	0x0226, r24
     324:	08 95       	ret

00000326 <radio_rxed>:
     326:	90 91 4f 01 	lds	r25, 0x014F
     32a:	81 e0       	ldi	r24, 0x01	; 1
     32c:	93 ff       	sbrs	r25, 3
     32e:	80 e0       	ldi	r24, 0x00	; 0
     330:	08 95       	ret

00000332 <radio_recv>:
     332:	8f 92       	push	r8
     334:	9f 92       	push	r9
     336:	af 92       	push	r10
     338:	bf 92       	push	r11
     33a:	cf 92       	push	r12
     33c:	df 92       	push	r13
     33e:	ef 92       	push	r14
     340:	ff 92       	push	r15
     342:	0f 93       	push	r16
     344:	1f 93       	push	r17
     346:	cf 93       	push	r28
     348:	78 2f       	mov	r23, r24
     34a:	c9 2f       	mov	r28, r25
     34c:	5a 01       	movw	r10, r20
     34e:	49 01       	movw	r8, r18
     350:	40 91 7b 01 	lds	r20, 0x017B
     354:	8f ef       	ldi	r24, 0xFF	; 255
     356:	80 93 00 02 	sts	0x0200, r24
     35a:	ef e4       	ldi	r30, 0x4F	; 79
     35c:	f1 e0       	ldi	r31, 0x01	; 1
     35e:	80 81       	ld	r24, Z
     360:	82 ff       	sbrs	r24, 2
     362:	fd cf       	rjmp	.-6      	; 0x35e <radio_recv+0x2c>
     364:	0c c0       	rjmp	.+24     	; 0x37e <radio_recv+0x4c>
     366:	80 81       	ld	r24, Z
     368:	90 e0       	ldi	r25, 0x00	; 0
     36a:	8f 71       	andi	r24, 0x1F	; 31
     36c:	90 70       	andi	r25, 0x00	; 0
     36e:	28 17       	cp	r18, r24
     370:	39 07       	cpc	r19, r25
     372:	64 f4       	brge	.+24     	; 0x38c <radio_recv+0x5a>
     374:	80 81       	ld	r24, Z
     376:	8f 71       	andi	r24, 0x1F	; 31
     378:	80 93 00 02 	sts	0x0200, r24
     37c:	04 c0       	rjmp	.+8      	; 0x386 <radio_recv+0x54>
     37e:	af e4       	ldi	r26, 0x4F	; 79
     380:	b1 e0       	ldi	r27, 0x01	; 1
     382:	e6 e4       	ldi	r30, 0x46	; 70
     384:	f1 e0       	ldi	r31, 0x01	; 1
     386:	20 91 00 02 	lds	r18, 0x0200
     38a:	30 e0       	ldi	r19, 0x00	; 0
     38c:	8c 91       	ld	r24, X
     38e:	83 ff       	sbrs	r24, 3
     390:	ea cf       	rjmp	.-44     	; 0x366 <radio_recv+0x34>
     392:	84 2f       	mov	r24, r20
     394:	8b 50       	subi	r24, 0x0B	; 11
     396:	46 2f       	mov	r20, r22
     398:	86 17       	cp	r24, r22
     39a:	08 f4       	brcc	.+2      	; 0x39e <radio_recv+0x6c>
     39c:	48 2f       	mov	r20, r24
     39e:	30 91 85 01 	lds	r19, 0x0185
     3a2:	20 e0       	ldi	r18, 0x00	; 0
     3a4:	80 91 86 01 	lds	r24, 0x0186
     3a8:	90 e0       	ldi	r25, 0x00	; 0
     3aa:	82 2b       	or	r24, r18
     3ac:	93 2b       	or	r25, r19
     3ae:	f5 01       	movw	r30, r10
     3b0:	91 83       	std	Z+1, r25	; 0x01
     3b2:	80 83       	st	Z, r24
     3b4:	30 91 89 01 	lds	r19, 0x0189
     3b8:	20 e0       	ldi	r18, 0x00	; 0
     3ba:	80 91 8a 01 	lds	r24, 0x018A
     3be:	90 e0       	ldi	r25, 0x00	; 0
     3c0:	82 2b       	or	r24, r18
     3c2:	93 2b       	or	r25, r19
     3c4:	f4 01       	movw	r30, r8
     3c6:	91 83       	std	Z+1, r25	; 0x01
     3c8:	80 83       	st	Z, r24
     3ca:	44 23       	and	r20, r20
     3cc:	99 f0       	breq	.+38     	; 0x3f4 <radio_recv+0xc2>
     3ce:	a7 2f       	mov	r26, r23
     3d0:	bc 2f       	mov	r27, r28
     3d2:	24 2f       	mov	r18, r20
     3d4:	21 50       	subi	r18, 0x01	; 1
     3d6:	30 e0       	ldi	r19, 0x00	; 0
     3d8:	c9 01       	movw	r24, r18
     3da:	84 57       	subi	r24, 0x74	; 116
     3dc:	9e 4f       	sbci	r25, 0xFE	; 254
     3de:	eb e8       	ldi	r30, 0x8B	; 139
     3e0:	f1 e0       	ldi	r31, 0x01	; 1
     3e2:	51 91       	ld	r21, Z+
     3e4:	5d 93       	st	X+, r21
     3e6:	e8 17       	cp	r30, r24
     3e8:	f9 07       	cpc	r31, r25
     3ea:	d9 f7       	brne	.-10     	; 0x3e2 <radio_recv+0xb0>
     3ec:	f9 01       	movw	r30, r18
     3ee:	e4 57       	subi	r30, 0x74	; 116
     3f0:	fe 4f       	sbci	r31, 0xFE	; 254
     3f2:	02 c0       	rjmp	.+4      	; 0x3f8 <radio_recv+0xc6>
     3f4:	eb e8       	ldi	r30, 0x8B	; 139
     3f6:	f1 e0       	ldi	r31, 0x01	; 1
     3f8:	80 81       	ld	r24, Z
     3fa:	80 93 2b 02 	sts	0x022B, r24
     3fe:	f6 01       	movw	r30, r12
     400:	80 83       	st	Z, r24
     402:	80 91 47 01 	lds	r24, 0x0147
     406:	80 93 2c 02 	sts	0x022C, r24
     40a:	f7 01       	movw	r30, r14
     40c:	80 83       	st	Z, r24
     40e:	80 91 46 01 	lds	r24, 0x0146
     412:	88 1f       	adc	r24, r24
     414:	88 27       	eor	r24, r24
     416:	88 1f       	adc	r24, r24
     418:	f8 01       	movw	r30, r16
     41a:	80 83       	st	Z, r24
     41c:	e1 e4       	ldi	r30, 0x41	; 65
     41e:	f1 e0       	ldi	r31, 0x01	; 1
     420:	80 81       	ld	r24, Z
     422:	8f 71       	andi	r24, 0x1F	; 31
     424:	86 30       	cpi	r24, 0x06	; 6
     426:	e1 f7       	brne	.-8      	; 0x420 <radio_recv+0xee>
     428:	ec e4       	ldi	r30, 0x4C	; 76
     42a:	f1 e0       	ldi	r31, 0x01	; 1
     42c:	80 81       	ld	r24, Z
     42e:	8f 77       	andi	r24, 0x7F	; 127
     430:	80 83       	st	Z, r24
     432:	80 81       	ld	r24, Z
     434:	80 68       	ori	r24, 0x80	; 128
     436:	80 83       	st	Z, r24
     438:	8f ef       	ldi	r24, 0xFF	; 255
     43a:	80 93 4f 01 	sts	0x014F, r24
     43e:	80 91 41 01 	lds	r24, 0x0141
     442:	80 93 26 02 	sts	0x0226, r24
     446:	84 2f       	mov	r24, r20
     448:	82 50       	subi	r24, 0x02	; 2
     44a:	cf 91       	pop	r28
     44c:	1f 91       	pop	r17
     44e:	0f 91       	pop	r16
     450:	ff 90       	pop	r15
     452:	ef 90       	pop	r14
     454:	df 90       	pop	r13
     456:	cf 90       	pop	r12
     458:	bf 90       	pop	r11
     45a:	af 90       	pop	r10
     45c:	9f 90       	pop	r9
     45e:	8f 90       	pop	r8
     460:	08 95       	ret

00000462 <radio_set_power>:
     462:	e5 e4       	ldi	r30, 0x45	; 69
     464:	f1 e0       	ldi	r31, 0x01	; 1
     466:	90 81       	ld	r25, Z
     468:	8f 70       	andi	r24, 0x0F	; 15
     46a:	90 7f       	andi	r25, 0xF0	; 240
     46c:	98 2b       	or	r25, r24
     46e:	90 83       	st	Z, r25
     470:	08 95       	ret

00000472 <radio_rssi>:
     472:	80 91 46 01 	lds	r24, 0x0146
     476:	8f 71       	andi	r24, 0x1F	; 31
     478:	90 91 00 02 	lds	r25, 0x0200
     47c:	98 17       	cp	r25, r24
     47e:	10 f4       	brcc	.+4      	; 0x484 <radio_rssi+0x12>
     480:	80 93 00 02 	sts	0x0200, r24
     484:	08 95       	ret

00000486 <radio_max_rssi>:
     486:	80 91 00 02 	lds	r24, 0x0200
     48a:	10 92 00 02 	sts	0x0200, r1
     48e:	08 95       	ret

00000490 <radio_latest_energy>:
     490:	80 91 2c 02 	lds	r24, 0x022C
     494:	08 95       	ret

00000496 <radio_latest_lqi>:
     496:	80 91 2b 02 	lds	r24, 0x022B
     49a:	08 95       	ret

0000049c <radio_rx_all>:
     49c:	80 91 29 02 	lds	r24, 0x0229
     4a0:	08 95       	ret

000004a2 <radio_getid>:
     4a2:	80 91 27 02 	lds	r24, 0x0227
     4a6:	90 91 28 02 	lds	r25, 0x0228
     4aa:	08 95       	ret

000004ac <serial_init>:
     4ac:	4f 92       	push	r4
     4ae:	5f 92       	push	r5
     4b0:	6f 92       	push	r6
     4b2:	7f 92       	push	r7
     4b4:	8f 92       	push	r8
     4b6:	9f 92       	push	r9
     4b8:	af 92       	push	r10
     4ba:	bf 92       	push	r11
     4bc:	cf 92       	push	r12
     4be:	df 92       	push	r13
     4c0:	ef 92       	push	r14
     4c2:	ff 92       	push	r15
     4c4:	4b 01       	movw	r8, r22
     4c6:	5c 01       	movw	r10, r24
     4c8:	d9 d1       	rcall	.+946    	; 0x87c <hw_timer_cpuf>
     4ca:	2b 01       	movw	r4, r22
     4cc:	3c 01       	movw	r6, r24
     4ce:	68 94       	set
     4d0:	13 f8       	bld	r1, 3
     4d2:	76 94       	lsr	r7
     4d4:	67 94       	ror	r6
     4d6:	57 94       	ror	r5
     4d8:	47 94       	ror	r4
     4da:	16 94       	lsr	r1
     4dc:	d1 f7       	brne	.-12     	; 0x4d2 <serial_init+0x26>
     4de:	0f 2e       	mov	r0, r31
     4e0:	fa e0       	ldi	r31, 0x0A	; 10
     4e2:	cf 2e       	mov	r12, r31
     4e4:	f0 e0       	ldi	r31, 0x00	; 0
     4e6:	df 2e       	mov	r13, r31
     4e8:	f0 e0       	ldi	r31, 0x00	; 0
     4ea:	ef 2e       	mov	r14, r31
     4ec:	f0 e0       	ldi	r31, 0x00	; 0
     4ee:	ff 2e       	mov	r15, r31
     4f0:	f0 2d       	mov	r31, r0
     4f2:	c5 01       	movw	r24, r10
     4f4:	b4 01       	movw	r22, r8
     4f6:	a7 01       	movw	r20, r14
     4f8:	96 01       	movw	r18, r12
     4fa:	8e d3       	rcall	.+1820   	; 0xc18 <__udivmodsi4>
     4fc:	c3 01       	movw	r24, r6
     4fe:	b2 01       	movw	r22, r4
     500:	8b d3       	rcall	.+1814   	; 0xc18 <__udivmodsi4>
     502:	ca 01       	movw	r24, r20
     504:	b9 01       	movw	r22, r18
     506:	6b 5f       	subi	r22, 0xFB	; 251
     508:	7f 4f       	sbci	r23, 0xFF	; 255
     50a:	8f 4f       	sbci	r24, 0xFF	; 255
     50c:	9f 4f       	sbci	r25, 0xFF	; 255
     50e:	a7 01       	movw	r20, r14
     510:	96 01       	movw	r18, r12
     512:	82 d3       	rcall	.+1796   	; 0xc18 <__udivmodsi4>
     514:	da 01       	movw	r26, r20
     516:	c9 01       	movw	r24, r18
     518:	01 97       	sbiw	r24, 0x01	; 1
     51a:	a1 09       	sbc	r26, r1
     51c:	b1 09       	sbc	r27, r1
     51e:	e1 ec       	ldi	r30, 0xC1	; 193
     520:	f0 e0       	ldi	r31, 0x00	; 0
     522:	10 82       	st	Z, r1
     524:	10 92 c0 00 	sts	0x00C0, r1
     528:	26 e0       	ldi	r18, 0x06	; 6
     52a:	20 93 c2 00 	sts	0x00C2, r18
     52e:	29 2f       	mov	r18, r25
     530:	2f 70       	andi	r18, 0x0F	; 15
     532:	20 93 c5 00 	sts	0x00C5, r18
     536:	80 93 c4 00 	sts	0x00C4, r24
     53a:	88 e1       	ldi	r24, 0x18	; 24
     53c:	80 83       	st	Z, r24
     53e:	81 e0       	ldi	r24, 0x01	; 1
     540:	92 e0       	ldi	r25, 0x02	; 2
     542:	90 93 6e 03 	sts	0x036E, r25
     546:	80 93 6d 03 	sts	0x036D, r24
     54a:	ed e6       	ldi	r30, 0x6D	; 109
     54c:	f3 e0       	ldi	r31, 0x03	; 3
     54e:	92 93       	st	-Z, r25
     550:	82 93       	st	-Z, r24
     552:	95 83       	std	Z+5, r25	; 0x05
     554:	84 83       	std	Z+4, r24	; 0x04
     556:	81 e0       	ldi	r24, 0x01	; 1
     558:	80 93 2d 02 	sts	0x022D, r24
     55c:	ff 90       	pop	r15
     55e:	ef 90       	pop	r14
     560:	df 90       	pop	r13
     562:	cf 90       	pop	r12
     564:	bf 90       	pop	r11
     566:	af 90       	pop	r10
     568:	9f 90       	pop	r9
     56a:	8f 90       	pop	r8
     56c:	7f 90       	pop	r7
     56e:	6f 90       	pop	r6
     570:	5f 90       	pop	r5
     572:	4f 90       	pop	r4
     574:	08 95       	ret

00000576 <serial_is_init>:
     576:	80 91 2d 02 	lds	r24, 0x022D
     57a:	08 95       	ret

0000057c <serial_put>:
     57c:	e0 ec       	ldi	r30, 0xC0	; 192
     57e:	f0 e0       	ldi	r31, 0x00	; 0
     580:	90 81       	ld	r25, Z
     582:	95 ff       	sbrs	r25, 5
     584:	fd cf       	rjmp	.-6      	; 0x580 <serial_put+0x4>
     586:	80 93 c6 00 	sts	0x00C6, r24
     58a:	08 95       	ret

0000058c <write>:
     58c:	cf 93       	push	r28
     58e:	c8 2f       	mov	r28, r24
     590:	f5 df       	rcall	.-22     	; 0x57c <serial_put>
     592:	8c 2f       	mov	r24, r28
     594:	90 e0       	ldi	r25, 0x00	; 0
     596:	cf 91       	pop	r28
     598:	08 95       	ret

0000059a <serial_puts>:
     59a:	cf 93       	push	r28
     59c:	df 93       	push	r29
     59e:	ec 01       	movw	r28, r24
     5a0:	88 81       	ld	r24, Y
     5a2:	88 23       	and	r24, r24
     5a4:	29 f0       	breq	.+10     	; 0x5b0 <serial_puts+0x16>
     5a6:	21 96       	adiw	r28, 0x01	; 1
     5a8:	e9 df       	rcall	.-46     	; 0x57c <serial_put>
     5aa:	89 91       	ld	r24, Y+
     5ac:	88 23       	and	r24, r24
     5ae:	e1 f7       	brne	.-8      	; 0x5a8 <serial_puts+0xe>
     5b0:	df 91       	pop	r29
     5b2:	cf 91       	pop	r28
     5b4:	08 95       	ret

000005b6 <serial_ready>:
     5b6:	80 91 c0 00 	lds	r24, 0x00C0
     5ba:	88 1f       	adc	r24, r24
     5bc:	88 27       	eor	r24, r24
     5be:	88 1f       	adc	r24, r24
     5c0:	08 95       	ret

000005c2 <serial_get>:
     5c2:	f9 df       	rcall	.-14     	; 0x5b6 <serial_ready>
     5c4:	88 23       	and	r24, r24
     5c6:	e9 f3       	breq	.-6      	; 0x5c2 <serial_get>
     5c8:	80 91 c6 00 	lds	r24, 0x00C6
     5cc:	08 95       	ret

000005ce <read>:
     5ce:	cf 93       	push	r28
     5d0:	f8 df       	rcall	.-16     	; 0x5c2 <serial_get>
     5d2:	c8 2f       	mov	r28, r24
     5d4:	d3 df       	rcall	.-90     	; 0x57c <serial_put>
     5d6:	8c 2f       	mov	r24, r28
     5d8:	90 e0       	ldi	r25, 0x00	; 0
     5da:	cf 91       	pop	r28
     5dc:	08 95       	ret

000005de <os_timer_add>:
     5de:	bc 01       	movw	r22, r24
     5e0:	40 91 33 02 	lds	r20, 0x0233
     5e4:	50 91 34 02 	lds	r21, 0x0234
     5e8:	48 17       	cp	r20, r24
     5ea:	59 07       	cpc	r21, r25
     5ec:	41 f1       	breq	.+80     	; 0x63e <os_timer_add+0x60>
     5ee:	a5 e3       	ldi	r26, 0x35	; 53
     5f0:	b2 e0       	ldi	r27, 0x02	; 2
     5f2:	9d 01       	movw	r18, r26
     5f4:	2e 5e       	subi	r18, 0xEE	; 238
     5f6:	3f 4f       	sbci	r19, 0xFF	; 255
     5f8:	fd 01       	movw	r30, r26
     5fa:	81 91       	ld	r24, Z+
     5fc:	91 91       	ld	r25, Z+
     5fe:	86 17       	cp	r24, r22
     600:	97 07       	cpc	r25, r23
     602:	e9 f0       	breq	.+58     	; 0x63e <os_timer_add+0x60>
     604:	e2 17       	cp	r30, r18
     606:	f3 07       	cpc	r31, r19
     608:	c1 f7       	brne	.-16     	; 0x5fa <os_timer_add+0x1c>
     60a:	41 15       	cp	r20, r1
     60c:	51 05       	cpc	r21, r1
     60e:	41 f0       	breq	.+16     	; 0x620 <os_timer_add+0x42>
     610:	21 e0       	ldi	r18, 0x01	; 1
     612:	30 e0       	ldi	r19, 0x00	; 0
     614:	a9 01       	movw	r20, r18
     616:	8d 91       	ld	r24, X+
     618:	9d 91       	ld	r25, X+
     61a:	00 97       	sbiw	r24, 0x00	; 0
     61c:	59 f4       	brne	.+22     	; 0x634 <os_timer_add+0x56>
     61e:	02 c0       	rjmp	.+4      	; 0x624 <os_timer_add+0x46>
     620:	40 e0       	ldi	r20, 0x00	; 0
     622:	50 e0       	ldi	r21, 0x00	; 0
     624:	fa 01       	movw	r30, r20
     626:	ee 0f       	add	r30, r30
     628:	ff 1f       	adc	r31, r31
     62a:	ed 5c       	subi	r30, 0xCD	; 205
     62c:	fd 4f       	sbci	r31, 0xFD	; 253
     62e:	71 83       	std	Z+1, r23	; 0x01
     630:	60 83       	st	Z, r22
     632:	08 95       	ret
     634:	2f 5f       	subi	r18, 0xFF	; 255
     636:	3f 4f       	sbci	r19, 0xFF	; 255
     638:	2a 30       	cpi	r18, 0x0A	; 10
     63a:	31 05       	cpc	r19, r1
     63c:	59 f7       	brne	.-42     	; 0x614 <os_timer_add+0x36>
     63e:	08 95       	ret

00000640 <os_timer_tick>:
     640:	fc 01       	movw	r30, r24
     642:	00 97       	sbiw	r24, 0x00	; 0
     644:	29 f1       	breq	.+74     	; 0x690 <os_timer_tick+0x50>
     646:	80 81       	ld	r24, Z
     648:	88 23       	and	r24, r24
     64a:	11 f1       	breq	.+68     	; 0x690 <os_timer_tick+0x50>
     64c:	80 85       	ldd	r24, Z+8	; 0x08
     64e:	91 85       	ldd	r25, Z+9	; 0x09
     650:	00 97       	sbiw	r24, 0x00	; 0
     652:	f1 f0       	breq	.+60     	; 0x690 <os_timer_tick+0x50>
     654:	66 23       	and	r22, r22
     656:	39 f0       	breq	.+14     	; 0x666 <os_timer_tick+0x26>
     658:	22 81       	ldd	r18, Z+2	; 0x02
     65a:	21 30       	cpi	r18, 0x01	; 1
     65c:	c9 f4       	brne	.+50     	; 0x690 <os_timer_tick+0x50>
     65e:	01 97       	sbiw	r24, 0x01	; 1
     660:	91 87       	std	Z+9, r25	; 0x09
     662:	80 87       	std	Z+8, r24	; 0x08
     664:	06 c0       	rjmp	.+12     	; 0x672 <os_timer_tick+0x32>
     666:	22 81       	ldd	r18, Z+2	; 0x02
     668:	22 23       	and	r18, r18
     66a:	91 f4       	brne	.+36     	; 0x690 <os_timer_tick+0x50>
     66c:	01 97       	sbiw	r24, 0x01	; 1
     66e:	91 87       	std	Z+9, r25	; 0x09
     670:	80 87       	std	Z+8, r24	; 0x08
     672:	80 85       	ldd	r24, Z+8	; 0x08
     674:	91 85       	ldd	r25, Z+9	; 0x09
     676:	00 97       	sbiw	r24, 0x00	; 0
     678:	59 f4       	brne	.+22     	; 0x690 <os_timer_tick+0x50>
     67a:	81 e0       	ldi	r24, 0x01	; 1
     67c:	83 83       	std	Z+3, r24	; 0x03
     67e:	86 81       	ldd	r24, Z+6	; 0x06
     680:	97 81       	ldd	r25, Z+7	; 0x07
     682:	00 97       	sbiw	r24, 0x00	; 0
     684:	19 f0       	breq	.+6      	; 0x68c <os_timer_tick+0x4c>
     686:	81 e0       	ldi	r24, 0x01	; 1
     688:	81 83       	std	Z+1, r24	; 0x01
     68a:	01 c0       	rjmp	.+2      	; 0x68e <os_timer_tick+0x4e>
     68c:	11 82       	std	Z+1, r1	; 0x01
     68e:	10 82       	st	Z, r1
     690:	08 95       	ret

00000692 <timer_init>:
     692:	fc 01       	movw	r30, r24
     694:	10 82       	st	Z, r1
     696:	11 82       	std	Z+1, r1	; 0x01
     698:	62 83       	std	Z+2, r22	; 0x02
     69a:	13 82       	std	Z+3, r1	; 0x03
     69c:	55 83       	std	Z+5, r21	; 0x05
     69e:	44 83       	std	Z+4, r20	; 0x04
     6a0:	37 83       	std	Z+7, r19	; 0x07
     6a2:	26 83       	std	Z+6, r18	; 0x06
     6a4:	9c cf       	rjmp	.-200    	; 0x5de <os_timer_add>

000006a6 <timer_start>:
     6a6:	fc 01       	movw	r30, r24
     6a8:	80 81       	ld	r24, Z
     6aa:	88 23       	and	r24, r24
     6ac:	41 f4       	brne	.+16     	; 0x6be <timer_start+0x18>
     6ae:	81 e0       	ldi	r24, 0x01	; 1
     6b0:	80 83       	st	Z, r24
     6b2:	11 82       	std	Z+1, r1	; 0x01
     6b4:	13 82       	std	Z+3, r1	; 0x03
     6b6:	84 81       	ldd	r24, Z+4	; 0x04
     6b8:	95 81       	ldd	r25, Z+5	; 0x05
     6ba:	91 87       	std	Z+9, r25	; 0x09
     6bc:	80 87       	std	Z+8, r24	; 0x08
     6be:	cf 01       	movw	r24, r30
     6c0:	8e cf       	rjmp	.-228    	; 0x5de <os_timer_add>

000006c2 <timer_stop>:
     6c2:	fc 01       	movw	r30, r24
     6c4:	10 82       	st	Z, r1
     6c6:	11 82       	std	Z+1, r1	; 0x01
     6c8:	08 95       	ret

000006ca <main>:
     6ca:	cf 93       	push	r28
     6cc:	df 93       	push	r29
     6ce:	cd b7       	in	r28, 0x3d	; 61
     6d0:	de b7       	in	r29, 0x3e	; 62
     6d2:	27 97       	sbiw	r28, 0x07	; 7
     6d4:	0f b6       	in	r0, 0x3f	; 63
     6d6:	f8 94       	cli
     6d8:	de bf       	out	0x3e, r29	; 62
     6da:	0f be       	out	0x3f, r0	; 63
     6dc:	cd bf       	out	0x3d, r28	; 61
     6de:	03 e3       	ldi	r16, 0x33	; 51
     6e0:	12 e0       	ldi	r17, 0x02	; 2
     6e2:	0f 2e       	mov	r0, r31
     6e4:	f4 e1       	ldi	r31, 0x14	; 20
     6e6:	af 2e       	mov	r10, r31
     6e8:	bb 24       	eor	r11, r11
     6ea:	f0 2d       	mov	r31, r0
     6ec:	a0 0e       	add	r10, r16
     6ee:	b1 1e       	adc	r11, r17
     6f0:	f8 01       	movw	r30, r16
     6f2:	11 92       	st	Z+, r1
     6f4:	11 92       	st	Z+, r1
     6f6:	ea 15       	cp	r30, r10
     6f8:	fb 05       	cpc	r31, r11
     6fa:	d9 f7       	brne	.-10     	; 0x6f2 <main+0x28>
     6fc:	c4 d0       	rcall	.+392    	; 0x886 <hw_timer_init>
     6fe:	97 d1       	rcall	.+814    	; 0xa2e <application_start>
     700:	44 24       	eor	r4, r4
     702:	55 24       	eor	r5, r5
     704:	33 24       	eor	r3, r3
     706:	70 2e       	mov	r7, r16
     708:	61 2e       	mov	r6, r17
     70a:	0f 2e       	mov	r0, r31
     70c:	f3 e3       	ldi	r31, 0x33	; 51
     70e:	8f 2e       	mov	r8, r31
     710:	f2 e0       	ldi	r31, 0x02	; 2
     712:	9f 2e       	mov	r9, r31
     714:	f0 2d       	mov	r31, r0
     716:	9d dd       	rcall	.-1222   	; 0x252 <radio_tx_done>
     718:	88 23       	and	r24, r24
     71a:	09 f0       	breq	.+2      	; 0x71e <main+0x54>
     71c:	61 d2       	rcall	.+1218   	; 0xbe0 <application_radio_tx_done>
     71e:	03 de       	rcall	.-1018   	; 0x326 <radio_rxed>
     720:	88 23       	and	r24, r24
     722:	89 f1       	breq	.+98     	; 0x786 <main+0xbc>
     724:	87 e4       	ldi	r24, 0x47	; 71
     726:	92 e0       	ldi	r25, 0x02	; 2
     728:	60 e8       	ldi	r22, 0x80	; 128
     72a:	ae 01       	movw	r20, r28
     72c:	4a 5f       	subi	r20, 0xFA	; 250
     72e:	5f 4f       	sbci	r21, 0xFF	; 255
     730:	9e 01       	movw	r18, r28
     732:	2c 5f       	subi	r18, 0xFC	; 252
     734:	3f 4f       	sbci	r19, 0xFF	; 255
     736:	8e 01       	movw	r16, r28
     738:	0d 5f       	subi	r16, 0xFD	; 253
     73a:	1f 4f       	sbci	r17, 0xFF	; 255
     73c:	ee 24       	eor	r14, r14
     73e:	ff 24       	eor	r15, r15
     740:	68 94       	set
     742:	e1 f8       	bld	r14, 1
     744:	ec 0e       	add	r14, r28
     746:	fd 1e       	adc	r15, r29
     748:	6e 01       	movw	r12, r28
     74a:	08 94       	sec
     74c:	c1 1c       	adc	r12, r1
     74e:	d1 1c       	adc	r13, r1
     750:	f0 dd       	rcall	.-1056   	; 0x332 <radio_recv>
     752:	08 2f       	mov	r16, r24
     754:	8b 81       	ldd	r24, Y+3	; 0x03
     756:	88 23       	and	r24, r24
     758:	b1 f0       	breq	.+44     	; 0x786 <main+0xbc>
     75a:	a3 de       	rcall	.-698    	; 0x4a2 <radio_getid>
     75c:	2e 81       	ldd	r18, Y+6	; 0x06
     75e:	3f 81       	ldd	r19, Y+7	; 0x07
     760:	82 17       	cp	r24, r18
     762:	93 07       	cpc	r25, r19
     764:	39 f0       	breq	.+14     	; 0x774 <main+0xaa>
     766:	8f ef       	ldi	r24, 0xFF	; 255
     768:	2f 3f       	cpi	r18, 0xFF	; 255
     76a:	38 07       	cpc	r19, r24
     76c:	19 f0       	breq	.+6      	; 0x774 <main+0xaa>
     76e:	96 de       	rcall	.-724    	; 0x49c <radio_rx_all>
     770:	88 23       	and	r24, r24
     772:	49 f0       	breq	.+18     	; 0x786 <main+0xbc>
     774:	6c 81       	ldd	r22, Y+4	; 0x04
     776:	7d 81       	ldd	r23, Y+5	; 0x05
     778:	8e 81       	ldd	r24, Y+6	; 0x06
     77a:	9f 81       	ldd	r25, Y+7	; 0x07
     77c:	40 2f       	mov	r20, r16
     77e:	50 e0       	ldi	r21, 0x00	; 0
     780:	27 e4       	ldi	r18, 0x47	; 71
     782:	32 e0       	ldi	r19, 0x02	; 2
     784:	73 d1       	rcall	.+742    	; 0xa6c <application_radio_rx_msg>
     786:	a5 d0       	rcall	.+330    	; 0x8d2 <hw_timer_now_us>
     788:	dc 01       	movw	r26, r24
     78a:	cb 01       	movw	r24, r22
     78c:	40 91 2e 02 	lds	r20, 0x022E
     790:	50 91 2f 02 	lds	r21, 0x022F
     794:	60 91 30 02 	lds	r22, 0x0230
     798:	70 91 31 02 	lds	r23, 0x0231
     79c:	48 17       	cp	r20, r24
     79e:	59 07       	cpc	r21, r25
     7a0:	6a 07       	cpc	r22, r26
     7a2:	7b 07       	cpc	r23, r27
     7a4:	78 f5       	brcc	.+94     	; 0x804 <main+0x13a>
     7a6:	95 d0       	rcall	.+298    	; 0x8d2 <hw_timer_now_us>
     7a8:	dc 01       	movw	r26, r24
     7aa:	cb 01       	movw	r24, r22
     7ac:	88 51       	subi	r24, 0x18	; 24
     7ae:	9c 4f       	sbci	r25, 0xFC	; 252
     7b0:	af 4f       	sbci	r26, 0xFF	; 255
     7b2:	bf 4f       	sbci	r27, 0xFF	; 255
     7b4:	80 93 2e 02 	sts	0x022E, r24
     7b8:	90 93 2f 02 	sts	0x022F, r25
     7bc:	a0 93 30 02 	sts	0x0230, r26
     7c0:	b0 93 31 02 	sts	0x0231, r27
     7c4:	07 2d       	mov	r16, r7
     7c6:	16 2d       	mov	r17, r6
     7c8:	d8 01       	movw	r26, r16
     7ca:	8d 91       	ld	r24, X+
     7cc:	9d 91       	ld	r25, X+
     7ce:	8d 01       	movw	r16, r26
     7d0:	61 e0       	ldi	r22, 0x01	; 1
     7d2:	36 df       	rcall	.-404    	; 0x640 <os_timer_tick>
     7d4:	0a 15       	cp	r16, r10
     7d6:	1b 05       	cpc	r17, r11
     7d8:	b9 f7       	brne	.-18     	; 0x7c8 <main+0xfe>
     7da:	08 94       	sec
     7dc:	41 1c       	adc	r4, r1
     7de:	51 1c       	adc	r5, r1
     7e0:	b8 ee       	ldi	r27, 0xE8	; 232
     7e2:	4b 16       	cp	r4, r27
     7e4:	b3 e0       	ldi	r27, 0x03	; 3
     7e6:	5b 06       	cpc	r5, r27
     7e8:	68 f0       	brcs	.+26     	; 0x804 <main+0x13a>
     7ea:	07 2d       	mov	r16, r7
     7ec:	16 2d       	mov	r17, r6
     7ee:	f8 01       	movw	r30, r16
     7f0:	81 91       	ld	r24, Z+
     7f2:	91 91       	ld	r25, Z+
     7f4:	8f 01       	movw	r16, r30
     7f6:	60 e0       	ldi	r22, 0x00	; 0
     7f8:	23 df       	rcall	.-442    	; 0x640 <os_timer_tick>
     7fa:	a0 16       	cp	r10, r16
     7fc:	b1 06       	cpc	r11, r17
     7fe:	b9 f7       	brne	.-18     	; 0x7ee <main+0x124>
     800:	44 24       	eor	r4, r4
     802:	55 24       	eor	r5, r5
     804:	a7 2d       	mov	r26, r7
     806:	b6 2d       	mov	r27, r6
     808:	00 e0       	ldi	r16, 0x00	; 0
     80a:	10 e0       	ldi	r17, 0x00	; 0
     80c:	ed 91       	ld	r30, X+
     80e:	fd 91       	ld	r31, X+
     810:	30 97       	sbiw	r30, 0x00	; 0
     812:	71 f1       	breq	.+92     	; 0x870 <main+0x1a6>
     814:	83 81       	ldd	r24, Z+3	; 0x03
     816:	88 23       	and	r24, r24
     818:	59 f1       	breq	.+86     	; 0x870 <main+0x1a6>
     81a:	cf 01       	movw	r24, r30
     81c:	26 d1       	rcall	.+588    	; 0xa6a <application_timer_tick>
     81e:	c8 01       	movw	r24, r16
     820:	88 0f       	add	r24, r24
     822:	99 1f       	adc	r25, r25
     824:	88 0d       	add	r24, r8
     826:	99 1d       	adc	r25, r9
     828:	dc 01       	movw	r26, r24
     82a:	ed 91       	ld	r30, X+
     82c:	fc 91       	ld	r31, X
     82e:	11 97       	sbiw	r26, 0x01	; 1
     830:	13 82       	std	Z+3, r1	; 0x03
     832:	81 81       	ldd	r24, Z+1	; 0x01
     834:	88 23       	and	r24, r24
     836:	41 f0       	breq	.+16     	; 0x848 <main+0x17e>
     838:	86 81       	ldd	r24, Z+6	; 0x06
     83a:	97 81       	ldd	r25, Z+7	; 0x07
     83c:	00 97       	sbiw	r24, 0x00	; 0
     83e:	21 f0       	breq	.+8      	; 0x848 <main+0x17e>
     840:	91 87       	std	Z+9, r25	; 0x09
     842:	80 87       	std	Z+8, r24	; 0x08
     844:	81 e0       	ldi	r24, 0x01	; 1
     846:	80 83       	st	Z, r24
     848:	11 82       	std	Z+1, r1	; 0x01
     84a:	8c dc       	rcall	.-1768   	; 0x164 <button_pressed>
     84c:	88 23       	and	r24, r24
     84e:	31 f0       	breq	.+12     	; 0x85c <main+0x192>
     850:	33 20       	and	r3, r3
     852:	21 f4       	brne	.+8      	; 0x85c <main+0x192>
     854:	d0 d1       	rcall	.+928    	; 0xbf6 <application_button_pressed>
     856:	33 24       	eor	r3, r3
     858:	33 94       	inc	r3
     85a:	5d cf       	rjmp	.-326    	; 0x716 <main+0x4c>
     85c:	87 dc       	rcall	.-1778   	; 0x16c <button_released>
     85e:	88 23       	and	r24, r24
     860:	09 f4       	brne	.+2      	; 0x864 <main+0x19a>
     862:	59 cf       	rjmp	.-334    	; 0x716 <main+0x4c>
     864:	33 20       	and	r3, r3
     866:	09 f4       	brne	.+2      	; 0x86a <main+0x1a0>
     868:	56 cf       	rjmp	.-340    	; 0x716 <main+0x4c>
     86a:	c6 d1       	rcall	.+908    	; 0xbf8 <application_button_released>
     86c:	33 24       	eor	r3, r3
     86e:	53 cf       	rjmp	.-346    	; 0x716 <main+0x4c>
     870:	0f 5f       	subi	r16, 0xFF	; 255
     872:	1f 4f       	sbci	r17, 0xFF	; 255
     874:	0a 30       	cpi	r16, 0x0A	; 10
     876:	11 05       	cpc	r17, r1
     878:	49 f6       	brne	.-110    	; 0x80c <main+0x142>
     87a:	e7 cf       	rjmp	.-50     	; 0x84a <main+0x180>

0000087c <hw_timer_cpuf>:
     87c:	60 e0       	ldi	r22, 0x00	; 0
     87e:	72 e1       	ldi	r23, 0x12	; 18
     880:	8a e7       	ldi	r24, 0x7A	; 122
     882:	90 e0       	ldi	r25, 0x00	; 0
     884:	08 95       	ret

00000886 <hw_timer_init>:
     886:	10 92 80 00 	sts	0x0080, r1
     88a:	81 e0       	ldi	r24, 0x01	; 1
     88c:	80 93 81 00 	sts	0x0081, r24
     890:	10 92 82 00 	sts	0x0082, r1
     894:	10 92 85 00 	sts	0x0085, r1
     898:	10 92 84 00 	sts	0x0084, r1
     89c:	10 92 6f 00 	sts	0x006F, r1
     8a0:	08 95       	ret

000008a2 <hw_timer_start>:
     8a2:	cf 93       	push	r28
     8a4:	df 93       	push	r29
     8a6:	ec 01       	movw	r28, r24
     8a8:	ee df       	rcall	.-36     	; 0x886 <hw_timer_init>
     8aa:	d0 93 85 00 	sts	0x0085, r29
     8ae:	c0 93 84 00 	sts	0x0084, r28
     8b2:	df 91       	pop	r29
     8b4:	cf 91       	pop	r28
     8b6:	08 95       	ret

000008b8 <hw_timer_overflow>:
     8b8:	81 e0       	ldi	r24, 0x01	; 1
     8ba:	b0 9b       	sbis	0x16, 0	; 22
     8bc:	80 e0       	ldi	r24, 0x00	; 0
     8be:	88 23       	and	r24, r24
     8c0:	11 f0       	breq	.+4      	; 0x8c6 <hw_timer_overflow+0xe>
     8c2:	91 e0       	ldi	r25, 0x01	; 1
     8c4:	96 bb       	out	0x16, r25	; 22
     8c6:	08 95       	ret

000008c8 <hw_timer_now>:
     8c8:	80 91 84 00 	lds	r24, 0x0084
     8cc:	90 91 85 00 	lds	r25, 0x0085
     8d0:	08 95       	ret

000008d2 <hw_timer_now_us>:
     8d2:	cf 92       	push	r12
     8d4:	df 92       	push	r13
     8d6:	ef 92       	push	r14
     8d8:	ff 92       	push	r15
     8da:	c0 90 84 00 	lds	r12, 0x0084
     8de:	d0 90 85 00 	lds	r13, 0x0085
     8e2:	d6 94       	lsr	r13
     8e4:	c7 94       	ror	r12
     8e6:	d6 94       	lsr	r13
     8e8:	c7 94       	ror	r12
     8ea:	d6 94       	lsr	r13
     8ec:	c7 94       	ror	r12
     8ee:	ee 24       	eor	r14, r14
     8f0:	ff 24       	eor	r15, r15
     8f2:	e2 df       	rcall	.-60     	; 0x8b8 <hw_timer_overflow>
     8f4:	88 23       	and	r24, r24
     8f6:	a1 f0       	breq	.+40     	; 0x920 <hw_timer_now_us+0x4e>
     8f8:	80 91 c7 02 	lds	r24, 0x02C7
     8fc:	90 91 c8 02 	lds	r25, 0x02C8
     900:	a0 91 c9 02 	lds	r26, 0x02C9
     904:	b0 91 ca 02 	lds	r27, 0x02CA
     908:	80 50       	subi	r24, 0x00	; 0
     90a:	90 4e       	sbci	r25, 0xE0	; 224
     90c:	af 4f       	sbci	r26, 0xFF	; 255
     90e:	bf 4f       	sbci	r27, 0xFF	; 255
     910:	80 93 c7 02 	sts	0x02C7, r24
     914:	90 93 c8 02 	sts	0x02C8, r25
     918:	a0 93 c9 02 	sts	0x02C9, r26
     91c:	b0 93 ca 02 	sts	0x02CA, r27
     920:	80 91 c7 02 	lds	r24, 0x02C7
     924:	90 91 c8 02 	lds	r25, 0x02C8
     928:	a0 91 c9 02 	lds	r26, 0x02C9
     92c:	b0 91 ca 02 	lds	r27, 0x02CA
     930:	c8 0e       	add	r12, r24
     932:	d9 1e       	adc	r13, r25
     934:	ea 1e       	adc	r14, r26
     936:	fb 1e       	adc	r15, r27
     938:	6c 2d       	mov	r22, r12
     93a:	7d 2d       	mov	r23, r13
     93c:	8e 2d       	mov	r24, r14
     93e:	9f 2d       	mov	r25, r15
     940:	ff 90       	pop	r15
     942:	ef 90       	pop	r14
     944:	df 90       	pop	r13
     946:	cf 90       	pop	r12
     948:	08 95       	ret

0000094a <hw_timer_wait_micro>:
     94a:	8f 92       	push	r8
     94c:	9f 92       	push	r9
     94e:	af 92       	push	r10
     950:	bf 92       	push	r11
     952:	cf 92       	push	r12
     954:	df 92       	push	r13
     956:	ef 92       	push	r14
     958:	ff 92       	push	r15
     95a:	4c 01       	movw	r8, r24
     95c:	aa 24       	eor	r10, r10
     95e:	bb 24       	eor	r11, r11
     960:	88 0c       	add	r8, r8
     962:	99 1c       	adc	r9, r9
     964:	aa 1c       	adc	r10, r10
     966:	bb 1c       	adc	r11, r11
     968:	88 0c       	add	r8, r8
     96a:	99 1c       	adc	r9, r9
     96c:	aa 1c       	adc	r10, r10
     96e:	bb 1c       	adc	r11, r11
     970:	88 0c       	add	r8, r8
     972:	99 1c       	adc	r9, r9
     974:	aa 1c       	adc	r10, r10
     976:	bb 1c       	adc	r11, r11
     978:	80 e0       	ldi	r24, 0x00	; 0
     97a:	88 16       	cp	r8, r24
     97c:	80 e0       	ldi	r24, 0x00	; 0
     97e:	98 06       	cpc	r9, r24
     980:	81 e0       	ldi	r24, 0x01	; 1
     982:	a8 06       	cpc	r10, r24
     984:	80 e0       	ldi	r24, 0x00	; 0
     986:	b8 06       	cpc	r11, r24
     988:	78 f1       	brcs	.+94     	; 0x9e8 <hw_timer_wait_micro+0x9e>
     98a:	75 01       	movw	r14, r10
     98c:	64 01       	movw	r12, r8
     98e:	80 e0       	ldi	r24, 0x00	; 0
     990:	90 e0       	ldi	r25, 0x00	; 0
     992:	87 df       	rcall	.-242    	; 0x8a2 <hw_timer_start>
     994:	80 e0       	ldi	r24, 0x00	; 0
     996:	90 e0       	ldi	r25, 0x00	; 0
     998:	af ef       	ldi	r26, 0xFF	; 255
     99a:	bf ef       	ldi	r27, 0xFF	; 255
     99c:	c8 0e       	add	r12, r24
     99e:	d9 1e       	adc	r13, r25
     9a0:	ea 1e       	adc	r14, r26
     9a2:	fb 1e       	adc	r15, r27
     9a4:	89 df       	rcall	.-238    	; 0x8b8 <hw_timer_overflow>
     9a6:	88 23       	and	r24, r24
     9a8:	e9 f3       	breq	.-6      	; 0x9a4 <hw_timer_wait_micro+0x5a>
     9aa:	90 e0       	ldi	r25, 0x00	; 0
     9ac:	c9 16       	cp	r12, r25
     9ae:	90 e0       	ldi	r25, 0x00	; 0
     9b0:	d9 06       	cpc	r13, r25
     9b2:	91 e0       	ldi	r25, 0x01	; 1
     9b4:	e9 06       	cpc	r14, r25
     9b6:	90 e0       	ldi	r25, 0x00	; 0
     9b8:	f9 06       	cpc	r15, r25
     9ba:	48 f7       	brcc	.-46     	; 0x98e <hw_timer_wait_micro+0x44>
     9bc:	80 e0       	ldi	r24, 0x00	; 0
     9be:	90 e0       	ldi	r25, 0x00	; 0
     9c0:	af ef       	ldi	r26, 0xFF	; 255
     9c2:	bf ef       	ldi	r27, 0xFF	; 255
     9c4:	88 0e       	add	r8, r24
     9c6:	99 1e       	adc	r9, r25
     9c8:	aa 1e       	adc	r10, r26
     9ca:	bb 1e       	adc	r11, r27
     9cc:	b5 01       	movw	r22, r10
     9ce:	88 27       	eor	r24, r24
     9d0:	99 27       	eor	r25, r25
     9d2:	20 e0       	ldi	r18, 0x00	; 0
     9d4:	30 e0       	ldi	r19, 0x00	; 0
     9d6:	4f ef       	ldi	r20, 0xFF	; 255
     9d8:	5f ef       	ldi	r21, 0xFF	; 255
     9da:	0f d1       	rcall	.+542    	; 0xbfa <__mulsi3>
     9dc:	dc 01       	movw	r26, r24
     9de:	cb 01       	movw	r24, r22
     9e0:	88 0e       	add	r8, r24
     9e2:	99 1e       	adc	r9, r25
     9e4:	aa 1e       	adc	r10, r26
     9e6:	bb 1e       	adc	r11, r27
     9e8:	c4 01       	movw	r24, r8
     9ea:	80 95       	com	r24
     9ec:	90 95       	com	r25
     9ee:	59 df       	rcall	.-334    	; 0x8a2 <hw_timer_start>
     9f0:	63 df       	rcall	.-314    	; 0x8b8 <hw_timer_overflow>
     9f2:	88 23       	and	r24, r24
     9f4:	e9 f3       	breq	.-6      	; 0x9f0 <hw_timer_wait_micro+0xa6>
     9f6:	ff 90       	pop	r15
     9f8:	ef 90       	pop	r14
     9fa:	df 90       	pop	r13
     9fc:	cf 90       	pop	r12
     9fe:	bf 90       	pop	r11
     a00:	af 90       	pop	r10
     a02:	9f 90       	pop	r9
     a04:	8f 90       	pop	r8
     a06:	08 95       	ret

00000a08 <hw_timer_wait_milli>:
     a08:	cf 93       	push	r28
     a0a:	df 93       	push	r29
     a0c:	ec 01       	movw	r28, r24
     a0e:	82 34       	cpi	r24, 0x42	; 66
     a10:	91 05       	cpc	r25, r1
     a12:	40 f0       	brcs	.+16     	; 0xa24 <hw_timer_wait_milli+0x1c>
     a14:	88 ee       	ldi	r24, 0xE8	; 232
     a16:	9d ef       	ldi	r25, 0xFD	; 253
     a18:	98 df       	rcall	.-208    	; 0x94a <hw_timer_wait_micro>
     a1a:	c1 54       	subi	r28, 0x41	; 65
     a1c:	d0 40       	sbci	r29, 0x00	; 0
     a1e:	c2 34       	cpi	r28, 0x42	; 66
     a20:	d1 05       	cpc	r29, r1
     a22:	c0 f7       	brcc	.-16     	; 0xa14 <hw_timer_wait_milli+0xc>
     a24:	ce 01       	movw	r24, r28
     a26:	91 df       	rcall	.-222    	; 0x94a <hw_timer_wait_micro>
     a28:	df 91       	pop	r29
     a2a:	cf 91       	pop	r28
     a2c:	08 95       	ret

00000a2e <application_start>:
     a2e:	a2 db       	rcall	.-2236   	; 0x174 <leds_init>
     a30:	96 db       	rcall	.-2260   	; 0x15e <button_init>
     a32:	61 e0       	ldi	r22, 0x01	; 1
     a34:	83 e0       	ldi	r24, 0x03	; 3
     a36:	90 e0       	ldi	r25, 0x00	; 0
     a38:	bc db       	rcall	.-2184   	; 0x1b2 <radio_init>
     a3a:	81 e0       	ldi	r24, 0x01	; 1
     a3c:	12 dd       	rcall	.-1500   	; 0x462 <radio_set_power>
     a3e:	f7 db       	rcall	.-2066   	; 0x22e <radio_start>
	leds_init();
	button_init();
	radio_init(NODE_ID, true); //true indicates receives radio message for ALL nodes
	radio_set_power(1);
	radio_start();
	serial_init(9600);
     a40:	60 e8       	ldi	r22, 0x80	; 128
     a42:	75 e2       	ldi	r23, 0x25	; 37
     a44:	80 e0       	ldi	r24, 0x00	; 0
     a46:	90 e0       	ldi	r25, 0x00	; 0
     a48:	31 dd       	rcall	.-1438   	; 0x4ac <serial_init>
	printf("test\r\n");
     a4a:	81 e1       	ldi	r24, 0x11	; 17
     a4c:	92 e0       	ldi	r25, 0x02	; 2
     a4e:	30 d1       	rcall	.+608    	; 0xcb0 <puts>
	ser.start = 'X';
     a50:	88 e5       	ldi	r24, 0x58	; 88
     a52:	90 e0       	ldi	r25, 0x00	; 0
     a54:	90 93 52 03 	sts	0x0352, r25
     a58:	80 93 51 03 	sts	0x0351, r24
	ser.endd = 'Y';
     a5c:	89 e5       	ldi	r24, 0x59	; 89
     a5e:	90 e0       	ldi	r25, 0x00	; 0
     a60:	90 93 58 03 	sts	0x0358, r25
     a64:	80 93 57 03 	sts	0x0357, r24
     a68:	08 95       	ret

00000a6a <application_timer_tick>:
}
//
// Timer tick handler
//
void application_timer_tick(timer *t)
{
     a6a:	08 95       	ret

00000a6c <application_radio_rx_msg>:

}

void application_radio_rx_msg(unsigned short dst, unsigned short src, int len, unsigned char *msgdata)
{
     a6c:	ff 92       	push	r15
     a6e:	0f 93       	push	r16
     a70:	1f 93       	push	r17
     a72:	cf 93       	push	r28
     a74:	df 93       	push	r29
     a76:	cd b7       	in	r28, 0x3d	; 61
     a78:	de b7       	in	r29, 0x3e	; 62
     a7a:	28 97       	sbiw	r28, 0x08	; 8
     a7c:	0f b6       	in	r0, 0x3f	; 63
     a7e:	f8 94       	cli
     a80:	de bf       	out	0x3e, r29	; 62
     a82:	0f be       	out	0x3f, r0	; 63
     a84:	cd bf       	out	0x3d, r28	; 61
     a86:	f9 01       	movw	r30, r18
	newPkt.dst = msgdata[0];
     a88:	0b e5       	ldi	r16, 0x5B	; 91
     a8a:	13 e0       	ldi	r17, 0x03	; 3
     a8c:	80 81       	ld	r24, Z
     a8e:	90 e0       	ldi	r25, 0x00	; 0
     a90:	d8 01       	movw	r26, r16
     a92:	8d 93       	st	X+, r24
     a94:	9c 93       	st	X, r25
	newPkt.src = msgdata[2];
     a96:	82 81       	ldd	r24, Z+2	; 0x02
     a98:	90 e0       	ldi	r25, 0x00	; 0
     a9a:	90 93 5e 03 	sts	0x035E, r25
     a9e:	80 93 5d 03 	sts	0x035D, r24
	newPkt.num = msgdata[4];
     aa2:	84 81       	ldd	r24, Z+4	; 0x04
     aa4:	90 e0       	ldi	r25, 0x00	; 0
     aa6:	90 93 60 03 	sts	0x0360, r25
     aaa:	80 93 5f 03 	sts	0x035F, r24
	
	//SEND OUT NOISE
	//send message down serial line indicating that the partner node should blast out noise.
	//wait for a response saying first ahead
	//then send the num yourself.
	leds_on(LED_RED);
     aae:	83 e0       	ldi	r24, 0x03	; 3
     ab0:	68 db       	rcall	.-2352   	; 0x182 <leds_on>
	
	if(newPkt.dst == gate && newPkt.num != justsent){
     ab2:	f8 01       	movw	r30, r16
     ab4:	20 81       	ld	r18, Z
     ab6:	31 81       	ldd	r19, Z+1	; 0x01
     ab8:	80 91 0f 02 	lds	r24, 0x020F
     abc:	90 91 10 02 	lds	r25, 0x0210
     ac0:	28 17       	cp	r18, r24
     ac2:	39 07       	cpc	r19, r25
     ac4:	09 f0       	breq	.+2      	; 0xac8 <application_radio_rx_msg+0x5c>
     ac6:	80 c0       	rjmp	.+256    	; 0xbc8 <application_radio_rx_msg+0x15c>
     ac8:	20 91 5f 03 	lds	r18, 0x035F
     acc:	30 91 60 03 	lds	r19, 0x0360
     ad0:	80 91 cd 02 	lds	r24, 0x02CD
     ad4:	90 91 ce 02 	lds	r25, 0x02CE
     ad8:	28 17       	cp	r18, r24
     ada:	39 07       	cpc	r19, r25
     adc:	09 f4       	brne	.+2      	; 0xae0 <application_radio_rx_msg+0x74>
     ade:	74 c0       	rjmp	.+232    	; 0xbc8 <application_radio_rx_msg+0x15c>
		
		if(!savedAMessage){
     ae0:	80 91 cb 02 	lds	r24, 0x02CB
     ae4:	81 11       	cpse	r24, r1
     ae6:	3a c0       	rjmp	.+116    	; 0xb5c <application_radio_rx_msg+0xf0>
			leds_on(LED_ORANGE);
     ae8:	82 e0       	ldi	r24, 0x02	; 2
     aea:	4b db       	rcall	.-2410   	; 0x182 <leds_on>
			leds_off(LED_GREEN);
     aec:	81 e0       	ldi	r24, 0x01	; 1
     aee:	55 db       	rcall	.-2390   	; 0x19a <leds_off>
			ser.msg = 1;
     af0:	81 e0       	ldi	r24, 0x01	; 1
     af2:	90 e0       	ldi	r25, 0x00	; 0
     af4:	90 93 54 03 	sts	0x0354, r25
     af8:	80 93 53 03 	sts	0x0353, r24
			ser.num = newPkt.num;
     afc:	ef e5       	ldi	r30, 0x5F	; 95
     afe:	f3 e0       	ldi	r31, 0x03	; 3
     b00:	80 81       	ld	r24, Z
     b02:	91 81       	ldd	r25, Z+1	; 0x01
     b04:	05 e5       	ldi	r16, 0x55	; 85
     b06:	13 e0       	ldi	r17, 0x03	; 3
     b08:	d8 01       	movw	r26, r16
     b0a:	8c 93       	st	X, r24
     b0c:	11 96       	adiw	r26, 0x01	; 1
     b0e:	9c 93       	st	X, r25
		
			unsigned char buf[8];
			
			//sprintf(buf, " %c%02d%02d %c", ser.start, ser.msg, ser.num, ser.endd);
			//printf(buf);
			printf(" %c%02d%02d %c", ser.start, ser.msg, ser.num, ser.endd);
     b10:	e7 e5       	ldi	r30, 0x57	; 87
     b12:	f3 e0       	ldi	r31, 0x03	; 3
     b14:	21 81       	ldd	r18, Z+1	; 0x01
     b16:	2f 93       	push	r18
     b18:	20 81       	ld	r18, Z
     b1a:	2f 93       	push	r18
     b1c:	9f 93       	push	r25
     b1e:	8f 93       	push	r24
     b20:	1f 92       	push	r1
     b22:	ff 24       	eor	r15, r15
     b24:	f3 94       	inc	r15
     b26:	ff 92       	push	r15
     b28:	e1 e5       	ldi	r30, 0x51	; 81
     b2a:	f3 e0       	ldi	r31, 0x03	; 3
     b2c:	81 81       	ldd	r24, Z+1	; 0x01
     b2e:	8f 93       	push	r24
     b30:	80 81       	ld	r24, Z
     b32:	8f 93       	push	r24
     b34:	87 e1       	ldi	r24, 0x17	; 23
     b36:	92 e0       	ldi	r25, 0x02	; 2
     b38:	9f 93       	push	r25
     b3a:	8f 93       	push	r24
     b3c:	a8 d0       	rcall	.+336    	; 0xc8e <printf>
			justsent = ser.num;
     b3e:	f8 01       	movw	r30, r16
     b40:	80 81       	ld	r24, Z
     b42:	91 81       	ldd	r25, Z+1	; 0x01
     b44:	90 93 ce 02 	sts	0x02CE, r25
     b48:	80 93 cd 02 	sts	0x02CD, r24
			
			//serial_puts(buf);
			
			savedAMessage = true;
     b4c:	f0 92 cb 02 	sts	0x02CB, r15
     b50:	0f b6       	in	r0, 0x3f	; 63
     b52:	f8 94       	cli
     b54:	de bf       	out	0x3e, r29	; 62
     b56:	0f be       	out	0x3f, r0	; 63
     b58:	cd bf       	out	0x3d, r28	; 61
     b5a:	36 c0       	rjmp	.+108    	; 0xbc8 <application_radio_rx_msg+0x15c>
		}
		else{
			leds_on(LED_GREEN);
     b5c:	81 e0       	ldi	r24, 0x01	; 1
     b5e:	11 db       	rcall	.-2526   	; 0x182 <leds_on>
			leds_off(LED_ORANGE);
     b60:	82 e0       	ldi	r24, 0x02	; 2
     b62:	1b db       	rcall	.-2506   	; 0x19a <leds_off>
			ser.msg = 2;
     b64:	82 e0       	ldi	r24, 0x02	; 2
     b66:	90 e0       	ldi	r25, 0x00	; 0
     b68:	90 93 54 03 	sts	0x0354, r25
     b6c:	80 93 53 03 	sts	0x0353, r24
			ser.num = newPkt.num;
     b70:	ef e5       	ldi	r30, 0x5F	; 95
     b72:	f3 e0       	ldi	r31, 0x03	; 3
     b74:	80 81       	ld	r24, Z
     b76:	91 81       	ldd	r25, Z+1	; 0x01
     b78:	e5 e5       	ldi	r30, 0x55	; 85
     b7a:	f3 e0       	ldi	r31, 0x03	; 3
     b7c:	80 83       	st	Z, r24
     b7e:	91 83       	std	Z+1, r25	; 0x01
			
			unsigned char buf[8];
			
			sprintf(buf, " %c%02d%02d %c", ser.start, ser.msg, ser.num, ser.endd);
     b80:	e7 e5       	ldi	r30, 0x57	; 87
     b82:	f3 e0       	ldi	r31, 0x03	; 3
     b84:	21 81       	ldd	r18, Z+1	; 0x01
     b86:	2f 93       	push	r18
     b88:	20 81       	ld	r18, Z
     b8a:	2f 93       	push	r18
     b8c:	9f 93       	push	r25
     b8e:	8f 93       	push	r24
     b90:	1f 92       	push	r1
     b92:	82 e0       	ldi	r24, 0x02	; 2
     b94:	8f 93       	push	r24
     b96:	e1 e5       	ldi	r30, 0x51	; 81
     b98:	f3 e0       	ldi	r31, 0x03	; 3
     b9a:	81 81       	ldd	r24, Z+1	; 0x01
     b9c:	8f 93       	push	r24
     b9e:	80 81       	ld	r24, Z
     ba0:	8f 93       	push	r24
     ba2:	87 e1       	ldi	r24, 0x17	; 23
     ba4:	92 e0       	ldi	r25, 0x02	; 2
     ba6:	9f 93       	push	r25
     ba8:	8f 93       	push	r24
     baa:	8e 01       	movw	r16, r28
     bac:	0f 5f       	subi	r16, 0xFF	; 255
     bae:	1f 4f       	sbci	r17, 0xFF	; 255
     bb0:	1f 93       	push	r17
     bb2:	0f 93       	push	r16
     bb4:	aa d0       	rcall	.+340    	; 0xd0a <sprintf>
			serial_puts(buf);
     bb6:	c8 01       	movw	r24, r16
     bb8:	f0 dc       	rcall	.-1568   	; 0x59a <serial_puts>
			
			savedAMessage = false;
     bba:	10 92 cb 02 	sts	0x02CB, r1
     bbe:	0f b6       	in	r0, 0x3f	; 63
     bc0:	f8 94       	cli
     bc2:	de bf       	out	0x3e, r29	; 62
     bc4:	0f be       	out	0x3f, r0	; 63
     bc6:	cd bf       	out	0x3d, r28	; 61
		}		
	}
}
     bc8:	28 96       	adiw	r28, 0x08	; 8
     bca:	0f b6       	in	r0, 0x3f	; 63
     bcc:	f8 94       	cli
     bce:	de bf       	out	0x3e, r29	; 62
     bd0:	0f be       	out	0x3f, r0	; 63
     bd2:	cd bf       	out	0x3d, r28	; 61
     bd4:	df 91       	pop	r29
     bd6:	cf 91       	pop	r28
     bd8:	1f 91       	pop	r17
     bda:	0f 91       	pop	r16
     bdc:	ff 90       	pop	r15
     bde:	08 95       	ret

00000be0 <application_radio_tx_done>:
// This function is called whenever a radio message has been transmitted
// You need to free up the transmit buffer here
//
void application_radio_tx_done()
{
	tx_buffer_inuse = false;
     be0:	10 92 cc 02 	sts	0x02CC, r1
     be4:	e1 ed       	ldi	r30, 0xD1	; 209
     be6:	f2 e0       	ldi	r31, 0x02	; 2
     be8:	81 e5       	ldi	r24, 0x51	; 81
     bea:	93 e0       	ldi	r25, 0x03	; 3
	
	//empty buffers after data has been sent
	for(int j=0; j<RADIO_MAX_LEN; j++)
	{
		tx_buffer[j] = 0x00;
     bec:	11 92       	st	Z+, r1
void application_radio_tx_done()
{
	tx_buffer_inuse = false;
	
	//empty buffers after data has been sent
	for(int j=0; j<RADIO_MAX_LEN; j++)
     bee:	e8 17       	cp	r30, r24
     bf0:	f9 07       	cpc	r31, r25
     bf2:	e1 f7       	brne	.-8      	; 0xbec <application_radio_tx_done+0xc>
	{
		tx_buffer[j] = 0x00;
	}
}
     bf4:	08 95       	ret

00000bf6 <application_button_pressed>:

void application_button_pressed()
{
     bf6:	08 95       	ret

00000bf8 <application_button_released>:


}

void application_button_released()
{
     bf8:	08 95       	ret

00000bfa <__mulsi3>:
     bfa:	db 01       	movw	r26, r22
     bfc:	8f 93       	push	r24
     bfe:	9f 93       	push	r25
     c00:	2d d0       	rcall	.+90     	; 0xc5c <__muluhisi3>
     c02:	bf 91       	pop	r27
     c04:	af 91       	pop	r26
     c06:	a2 9f       	mul	r26, r18
     c08:	80 0d       	add	r24, r0
     c0a:	91 1d       	adc	r25, r1
     c0c:	a3 9f       	mul	r26, r19
     c0e:	90 0d       	add	r25, r0
     c10:	b2 9f       	mul	r27, r18
     c12:	90 0d       	add	r25, r0
     c14:	11 24       	eor	r1, r1
     c16:	08 95       	ret

00000c18 <__udivmodsi4>:
     c18:	a1 e2       	ldi	r26, 0x21	; 33
     c1a:	1a 2e       	mov	r1, r26
     c1c:	aa 1b       	sub	r26, r26
     c1e:	bb 1b       	sub	r27, r27
     c20:	fd 01       	movw	r30, r26
     c22:	0d c0       	rjmp	.+26     	; 0xc3e <__udivmodsi4_ep>

00000c24 <__udivmodsi4_loop>:
     c24:	aa 1f       	adc	r26, r26
     c26:	bb 1f       	adc	r27, r27
     c28:	ee 1f       	adc	r30, r30
     c2a:	ff 1f       	adc	r31, r31
     c2c:	a2 17       	cp	r26, r18
     c2e:	b3 07       	cpc	r27, r19
     c30:	e4 07       	cpc	r30, r20
     c32:	f5 07       	cpc	r31, r21
     c34:	20 f0       	brcs	.+8      	; 0xc3e <__udivmodsi4_ep>
     c36:	a2 1b       	sub	r26, r18
     c38:	b3 0b       	sbc	r27, r19
     c3a:	e4 0b       	sbc	r30, r20
     c3c:	f5 0b       	sbc	r31, r21

00000c3e <__udivmodsi4_ep>:
     c3e:	66 1f       	adc	r22, r22
     c40:	77 1f       	adc	r23, r23
     c42:	88 1f       	adc	r24, r24
     c44:	99 1f       	adc	r25, r25
     c46:	1a 94       	dec	r1
     c48:	69 f7       	brne	.-38     	; 0xc24 <__udivmodsi4_loop>
     c4a:	60 95       	com	r22
     c4c:	70 95       	com	r23
     c4e:	80 95       	com	r24
     c50:	90 95       	com	r25
     c52:	9b 01       	movw	r18, r22
     c54:	ac 01       	movw	r20, r24
     c56:	bd 01       	movw	r22, r26
     c58:	cf 01       	movw	r24, r30
     c5a:	08 95       	ret

00000c5c <__muluhisi3>:
     c5c:	09 d0       	rcall	.+18     	; 0xc70 <__umulhisi3>
     c5e:	a5 9f       	mul	r26, r21
     c60:	90 0d       	add	r25, r0
     c62:	b4 9f       	mul	r27, r20
     c64:	90 0d       	add	r25, r0
     c66:	a4 9f       	mul	r26, r20
     c68:	80 0d       	add	r24, r0
     c6a:	91 1d       	adc	r25, r1
     c6c:	11 24       	eor	r1, r1
     c6e:	08 95       	ret

00000c70 <__umulhisi3>:
     c70:	a2 9f       	mul	r26, r18
     c72:	b0 01       	movw	r22, r0
     c74:	b3 9f       	mul	r27, r19
     c76:	c0 01       	movw	r24, r0
     c78:	a3 9f       	mul	r26, r19
     c7a:	70 0d       	add	r23, r0
     c7c:	81 1d       	adc	r24, r1
     c7e:	11 24       	eor	r1, r1
     c80:	91 1d       	adc	r25, r1
     c82:	b2 9f       	mul	r27, r18
     c84:	70 0d       	add	r23, r0
     c86:	81 1d       	adc	r24, r1
     c88:	11 24       	eor	r1, r1
     c8a:	91 1d       	adc	r25, r1
     c8c:	08 95       	ret

00000c8e <printf>:
     c8e:	cf 93       	push	r28
     c90:	df 93       	push	r29
     c92:	cd b7       	in	r28, 0x3d	; 61
     c94:	de b7       	in	r29, 0x3e	; 62
     c96:	fe 01       	movw	r30, r28
     c98:	35 96       	adiw	r30, 0x05	; 5
     c9a:	61 91       	ld	r22, Z+
     c9c:	71 91       	ld	r23, Z+
     c9e:	af 01       	movw	r20, r30
     ca0:	80 91 6d 03 	lds	r24, 0x036D
     ca4:	90 91 6e 03 	lds	r25, 0x036E
     ca8:	5e d0       	rcall	.+188    	; 0xd66 <vfprintf>
     caa:	df 91       	pop	r29
     cac:	cf 91       	pop	r28
     cae:	08 95       	ret

00000cb0 <puts>:
     cb0:	0f 93       	push	r16
     cb2:	1f 93       	push	r17
     cb4:	cf 93       	push	r28
     cb6:	df 93       	push	r29
     cb8:	e0 91 6d 03 	lds	r30, 0x036D
     cbc:	f0 91 6e 03 	lds	r31, 0x036E
     cc0:	23 81       	ldd	r18, Z+3	; 0x03
     cc2:	21 ff       	sbrs	r18, 1
     cc4:	1b c0       	rjmp	.+54     	; 0xcfc <puts+0x4c>
     cc6:	ec 01       	movw	r28, r24
     cc8:	00 e0       	ldi	r16, 0x00	; 0
     cca:	10 e0       	ldi	r17, 0x00	; 0
     ccc:	89 91       	ld	r24, Y+
     cce:	60 91 6d 03 	lds	r22, 0x036D
     cd2:	70 91 6e 03 	lds	r23, 0x036E
     cd6:	db 01       	movw	r26, r22
     cd8:	18 96       	adiw	r26, 0x08	; 8
     cda:	ed 91       	ld	r30, X+
     cdc:	fc 91       	ld	r31, X
     cde:	19 97       	sbiw	r26, 0x09	; 9
     ce0:	88 23       	and	r24, r24
     ce2:	31 f0       	breq	.+12     	; 0xcf0 <puts+0x40>
     ce4:	09 95       	icall
     ce6:	89 2b       	or	r24, r25
     ce8:	89 f3       	breq	.-30     	; 0xccc <puts+0x1c>
     cea:	0f ef       	ldi	r16, 0xFF	; 255
     cec:	1f ef       	ldi	r17, 0xFF	; 255
     cee:	ee cf       	rjmp	.-36     	; 0xccc <puts+0x1c>
     cf0:	8a e0       	ldi	r24, 0x0A	; 10
     cf2:	09 95       	icall
     cf4:	89 2b       	or	r24, r25
     cf6:	11 f4       	brne	.+4      	; 0xcfc <puts+0x4c>
     cf8:	c8 01       	movw	r24, r16
     cfa:	02 c0       	rjmp	.+4      	; 0xd00 <puts+0x50>
     cfc:	8f ef       	ldi	r24, 0xFF	; 255
     cfe:	9f ef       	ldi	r25, 0xFF	; 255
     d00:	df 91       	pop	r29
     d02:	cf 91       	pop	r28
     d04:	1f 91       	pop	r17
     d06:	0f 91       	pop	r16
     d08:	08 95       	ret

00000d0a <sprintf>:
     d0a:	0f 93       	push	r16
     d0c:	1f 93       	push	r17
     d0e:	cf 93       	push	r28
     d10:	df 93       	push	r29
     d12:	cd b7       	in	r28, 0x3d	; 61
     d14:	de b7       	in	r29, 0x3e	; 62
     d16:	2e 97       	sbiw	r28, 0x0e	; 14
     d18:	0f b6       	in	r0, 0x3f	; 63
     d1a:	f8 94       	cli
     d1c:	de bf       	out	0x3e, r29	; 62
     d1e:	0f be       	out	0x3f, r0	; 63
     d20:	cd bf       	out	0x3d, r28	; 61
     d22:	0d 89       	ldd	r16, Y+21	; 0x15
     d24:	1e 89       	ldd	r17, Y+22	; 0x16
     d26:	86 e0       	ldi	r24, 0x06	; 6
     d28:	8c 83       	std	Y+4, r24	; 0x04
     d2a:	1a 83       	std	Y+2, r17	; 0x02
     d2c:	09 83       	std	Y+1, r16	; 0x01
     d2e:	8f ef       	ldi	r24, 0xFF	; 255
     d30:	9f e7       	ldi	r25, 0x7F	; 127
     d32:	9e 83       	std	Y+6, r25	; 0x06
     d34:	8d 83       	std	Y+5, r24	; 0x05
     d36:	ae 01       	movw	r20, r28
     d38:	47 5e       	subi	r20, 0xE7	; 231
     d3a:	5f 4f       	sbci	r21, 0xFF	; 255
     d3c:	6f 89       	ldd	r22, Y+23	; 0x17
     d3e:	78 8d       	ldd	r23, Y+24	; 0x18
     d40:	ce 01       	movw	r24, r28
     d42:	01 96       	adiw	r24, 0x01	; 1
     d44:	10 d0       	rcall	.+32     	; 0xd66 <vfprintf>
     d46:	ef 81       	ldd	r30, Y+7	; 0x07
     d48:	f8 85       	ldd	r31, Y+8	; 0x08
     d4a:	e0 0f       	add	r30, r16
     d4c:	f1 1f       	adc	r31, r17
     d4e:	10 82       	st	Z, r1
     d50:	2e 96       	adiw	r28, 0x0e	; 14
     d52:	0f b6       	in	r0, 0x3f	; 63
     d54:	f8 94       	cli
     d56:	de bf       	out	0x3e, r29	; 62
     d58:	0f be       	out	0x3f, r0	; 63
     d5a:	cd bf       	out	0x3d, r28	; 61
     d5c:	df 91       	pop	r29
     d5e:	cf 91       	pop	r28
     d60:	1f 91       	pop	r17
     d62:	0f 91       	pop	r16
     d64:	08 95       	ret

00000d66 <vfprintf>:
     d66:	2f 92       	push	r2
     d68:	3f 92       	push	r3
     d6a:	4f 92       	push	r4
     d6c:	5f 92       	push	r5
     d6e:	6f 92       	push	r6
     d70:	7f 92       	push	r7
     d72:	8f 92       	push	r8
     d74:	9f 92       	push	r9
     d76:	af 92       	push	r10
     d78:	bf 92       	push	r11
     d7a:	cf 92       	push	r12
     d7c:	df 92       	push	r13
     d7e:	ef 92       	push	r14
     d80:	ff 92       	push	r15
     d82:	0f 93       	push	r16
     d84:	1f 93       	push	r17
     d86:	cf 93       	push	r28
     d88:	df 93       	push	r29
     d8a:	cd b7       	in	r28, 0x3d	; 61
     d8c:	de b7       	in	r29, 0x3e	; 62
     d8e:	2c 97       	sbiw	r28, 0x0c	; 12
     d90:	0f b6       	in	r0, 0x3f	; 63
     d92:	f8 94       	cli
     d94:	de bf       	out	0x3e, r29	; 62
     d96:	0f be       	out	0x3f, r0	; 63
     d98:	cd bf       	out	0x3d, r28	; 61
     d9a:	7c 01       	movw	r14, r24
     d9c:	6b 01       	movw	r12, r22
     d9e:	8a 01       	movw	r16, r20
     da0:	fc 01       	movw	r30, r24
     da2:	17 82       	std	Z+7, r1	; 0x07
     da4:	16 82       	std	Z+6, r1	; 0x06
     da6:	83 81       	ldd	r24, Z+3	; 0x03
     da8:	81 ff       	sbrs	r24, 1
     daa:	b0 c1       	rjmp	.+864    	; 0x110c <vfprintf+0x3a6>
     dac:	ce 01       	movw	r24, r28
     dae:	01 96       	adiw	r24, 0x01	; 1
     db0:	4c 01       	movw	r8, r24
     db2:	f7 01       	movw	r30, r14
     db4:	93 81       	ldd	r25, Z+3	; 0x03
     db6:	f6 01       	movw	r30, r12
     db8:	93 fd       	sbrc	r25, 3
     dba:	85 91       	lpm	r24, Z+
     dbc:	93 ff       	sbrs	r25, 3
     dbe:	81 91       	ld	r24, Z+
     dc0:	6f 01       	movw	r12, r30
     dc2:	88 23       	and	r24, r24
     dc4:	09 f4       	brne	.+2      	; 0xdc8 <vfprintf+0x62>
     dc6:	9e c1       	rjmp	.+828    	; 0x1104 <vfprintf+0x39e>
     dc8:	85 32       	cpi	r24, 0x25	; 37
     dca:	39 f4       	brne	.+14     	; 0xdda <vfprintf+0x74>
     dcc:	93 fd       	sbrc	r25, 3
     dce:	85 91       	lpm	r24, Z+
     dd0:	93 ff       	sbrs	r25, 3
     dd2:	81 91       	ld	r24, Z+
     dd4:	6f 01       	movw	r12, r30
     dd6:	85 32       	cpi	r24, 0x25	; 37
     dd8:	21 f4       	brne	.+8      	; 0xde2 <vfprintf+0x7c>
     dda:	b7 01       	movw	r22, r14
     ddc:	90 e0       	ldi	r25, 0x00	; 0
     dde:	c7 d1       	rcall	.+910    	; 0x116e <fputc>
     de0:	e8 cf       	rjmp	.-48     	; 0xdb2 <vfprintf+0x4c>
     de2:	51 2c       	mov	r5, r1
     de4:	31 2c       	mov	r3, r1
     de6:	20 e0       	ldi	r18, 0x00	; 0
     de8:	20 32       	cpi	r18, 0x20	; 32
     dea:	a0 f4       	brcc	.+40     	; 0xe14 <vfprintf+0xae>
     dec:	8b 32       	cpi	r24, 0x2B	; 43
     dee:	69 f0       	breq	.+26     	; 0xe0a <vfprintf+0xa4>
     df0:	30 f4       	brcc	.+12     	; 0xdfe <vfprintf+0x98>
     df2:	80 32       	cpi	r24, 0x20	; 32
     df4:	59 f0       	breq	.+22     	; 0xe0c <vfprintf+0xa6>
     df6:	83 32       	cpi	r24, 0x23	; 35
     df8:	69 f4       	brne	.+26     	; 0xe14 <vfprintf+0xae>
     dfa:	20 61       	ori	r18, 0x10	; 16
     dfc:	2c c0       	rjmp	.+88     	; 0xe56 <vfprintf+0xf0>
     dfe:	8d 32       	cpi	r24, 0x2D	; 45
     e00:	39 f0       	breq	.+14     	; 0xe10 <vfprintf+0xaa>
     e02:	80 33       	cpi	r24, 0x30	; 48
     e04:	39 f4       	brne	.+14     	; 0xe14 <vfprintf+0xae>
     e06:	21 60       	ori	r18, 0x01	; 1
     e08:	26 c0       	rjmp	.+76     	; 0xe56 <vfprintf+0xf0>
     e0a:	22 60       	ori	r18, 0x02	; 2
     e0c:	24 60       	ori	r18, 0x04	; 4
     e0e:	23 c0       	rjmp	.+70     	; 0xe56 <vfprintf+0xf0>
     e10:	28 60       	ori	r18, 0x08	; 8
     e12:	21 c0       	rjmp	.+66     	; 0xe56 <vfprintf+0xf0>
     e14:	27 fd       	sbrc	r18, 7
     e16:	27 c0       	rjmp	.+78     	; 0xe66 <vfprintf+0x100>
     e18:	30 ed       	ldi	r19, 0xD0	; 208
     e1a:	38 0f       	add	r19, r24
     e1c:	3a 30       	cpi	r19, 0x0A	; 10
     e1e:	78 f4       	brcc	.+30     	; 0xe3e <vfprintf+0xd8>
     e20:	26 ff       	sbrs	r18, 6
     e22:	06 c0       	rjmp	.+12     	; 0xe30 <vfprintf+0xca>
     e24:	fa e0       	ldi	r31, 0x0A	; 10
     e26:	5f 9e       	mul	r5, r31
     e28:	30 0d       	add	r19, r0
     e2a:	11 24       	eor	r1, r1
     e2c:	53 2e       	mov	r5, r19
     e2e:	13 c0       	rjmp	.+38     	; 0xe56 <vfprintf+0xf0>
     e30:	8a e0       	ldi	r24, 0x0A	; 10
     e32:	38 9e       	mul	r3, r24
     e34:	30 0d       	add	r19, r0
     e36:	11 24       	eor	r1, r1
     e38:	33 2e       	mov	r3, r19
     e3a:	20 62       	ori	r18, 0x20	; 32
     e3c:	0c c0       	rjmp	.+24     	; 0xe56 <vfprintf+0xf0>
     e3e:	8e 32       	cpi	r24, 0x2E	; 46
     e40:	21 f4       	brne	.+8      	; 0xe4a <vfprintf+0xe4>
     e42:	26 fd       	sbrc	r18, 6
     e44:	5f c1       	rjmp	.+702    	; 0x1104 <vfprintf+0x39e>
     e46:	20 64       	ori	r18, 0x40	; 64
     e48:	06 c0       	rjmp	.+12     	; 0xe56 <vfprintf+0xf0>
     e4a:	8c 36       	cpi	r24, 0x6C	; 108
     e4c:	11 f4       	brne	.+4      	; 0xe52 <vfprintf+0xec>
     e4e:	20 68       	ori	r18, 0x80	; 128
     e50:	02 c0       	rjmp	.+4      	; 0xe56 <vfprintf+0xf0>
     e52:	88 36       	cpi	r24, 0x68	; 104
     e54:	41 f4       	brne	.+16     	; 0xe66 <vfprintf+0x100>
     e56:	f6 01       	movw	r30, r12
     e58:	93 fd       	sbrc	r25, 3
     e5a:	85 91       	lpm	r24, Z+
     e5c:	93 ff       	sbrs	r25, 3
     e5e:	81 91       	ld	r24, Z+
     e60:	6f 01       	movw	r12, r30
     e62:	81 11       	cpse	r24, r1
     e64:	c1 cf       	rjmp	.-126    	; 0xde8 <vfprintf+0x82>
     e66:	98 2f       	mov	r25, r24
     e68:	9f 7d       	andi	r25, 0xDF	; 223
     e6a:	95 54       	subi	r25, 0x45	; 69
     e6c:	93 30       	cpi	r25, 0x03	; 3
     e6e:	28 f4       	brcc	.+10     	; 0xe7a <vfprintf+0x114>
     e70:	0c 5f       	subi	r16, 0xFC	; 252
     e72:	1f 4f       	sbci	r17, 0xFF	; 255
     e74:	ff e3       	ldi	r31, 0x3F	; 63
     e76:	f9 83       	std	Y+1, r31	; 0x01
     e78:	0d c0       	rjmp	.+26     	; 0xe94 <vfprintf+0x12e>
     e7a:	83 36       	cpi	r24, 0x63	; 99
     e7c:	31 f0       	breq	.+12     	; 0xe8a <vfprintf+0x124>
     e7e:	83 37       	cpi	r24, 0x73	; 115
     e80:	71 f0       	breq	.+28     	; 0xe9e <vfprintf+0x138>
     e82:	83 35       	cpi	r24, 0x53	; 83
     e84:	09 f0       	breq	.+2      	; 0xe88 <vfprintf+0x122>
     e86:	57 c0       	rjmp	.+174    	; 0xf36 <vfprintf+0x1d0>
     e88:	21 c0       	rjmp	.+66     	; 0xecc <vfprintf+0x166>
     e8a:	f8 01       	movw	r30, r16
     e8c:	80 81       	ld	r24, Z
     e8e:	89 83       	std	Y+1, r24	; 0x01
     e90:	0e 5f       	subi	r16, 0xFE	; 254
     e92:	1f 4f       	sbci	r17, 0xFF	; 255
     e94:	44 24       	eor	r4, r4
     e96:	43 94       	inc	r4
     e98:	51 2c       	mov	r5, r1
     e9a:	54 01       	movw	r10, r8
     e9c:	14 c0       	rjmp	.+40     	; 0xec6 <vfprintf+0x160>
     e9e:	38 01       	movw	r6, r16
     ea0:	f2 e0       	ldi	r31, 0x02	; 2
     ea2:	6f 0e       	add	r6, r31
     ea4:	71 1c       	adc	r7, r1
     ea6:	f8 01       	movw	r30, r16
     ea8:	a0 80       	ld	r10, Z
     eaa:	b1 80       	ldd	r11, Z+1	; 0x01
     eac:	26 ff       	sbrs	r18, 6
     eae:	03 c0       	rjmp	.+6      	; 0xeb6 <vfprintf+0x150>
     eb0:	65 2d       	mov	r22, r5
     eb2:	70 e0       	ldi	r23, 0x00	; 0
     eb4:	02 c0       	rjmp	.+4      	; 0xeba <vfprintf+0x154>
     eb6:	6f ef       	ldi	r22, 0xFF	; 255
     eb8:	7f ef       	ldi	r23, 0xFF	; 255
     eba:	c5 01       	movw	r24, r10
     ebc:	2c 87       	std	Y+12, r18	; 0x0c
     ebe:	4c d1       	rcall	.+664    	; 0x1158 <strnlen>
     ec0:	2c 01       	movw	r4, r24
     ec2:	83 01       	movw	r16, r6
     ec4:	2c 85       	ldd	r18, Y+12	; 0x0c
     ec6:	2f 77       	andi	r18, 0x7F	; 127
     ec8:	22 2e       	mov	r2, r18
     eca:	16 c0       	rjmp	.+44     	; 0xef8 <vfprintf+0x192>
     ecc:	38 01       	movw	r6, r16
     ece:	f2 e0       	ldi	r31, 0x02	; 2
     ed0:	6f 0e       	add	r6, r31
     ed2:	71 1c       	adc	r7, r1
     ed4:	f8 01       	movw	r30, r16
     ed6:	a0 80       	ld	r10, Z
     ed8:	b1 80       	ldd	r11, Z+1	; 0x01
     eda:	26 ff       	sbrs	r18, 6
     edc:	03 c0       	rjmp	.+6      	; 0xee4 <vfprintf+0x17e>
     ede:	65 2d       	mov	r22, r5
     ee0:	70 e0       	ldi	r23, 0x00	; 0
     ee2:	02 c0       	rjmp	.+4      	; 0xee8 <vfprintf+0x182>
     ee4:	6f ef       	ldi	r22, 0xFF	; 255
     ee6:	7f ef       	ldi	r23, 0xFF	; 255
     ee8:	c5 01       	movw	r24, r10
     eea:	2c 87       	std	Y+12, r18	; 0x0c
     eec:	2a d1       	rcall	.+596    	; 0x1142 <strnlen_P>
     eee:	2c 01       	movw	r4, r24
     ef0:	2c 85       	ldd	r18, Y+12	; 0x0c
     ef2:	20 68       	ori	r18, 0x80	; 128
     ef4:	22 2e       	mov	r2, r18
     ef6:	83 01       	movw	r16, r6
     ef8:	23 fc       	sbrc	r2, 3
     efa:	19 c0       	rjmp	.+50     	; 0xf2e <vfprintf+0x1c8>
     efc:	83 2d       	mov	r24, r3
     efe:	90 e0       	ldi	r25, 0x00	; 0
     f00:	48 16       	cp	r4, r24
     f02:	59 06       	cpc	r5, r25
     f04:	a0 f4       	brcc	.+40     	; 0xf2e <vfprintf+0x1c8>
     f06:	b7 01       	movw	r22, r14
     f08:	80 e2       	ldi	r24, 0x20	; 32
     f0a:	90 e0       	ldi	r25, 0x00	; 0
     f0c:	30 d1       	rcall	.+608    	; 0x116e <fputc>
     f0e:	3a 94       	dec	r3
     f10:	f5 cf       	rjmp	.-22     	; 0xefc <vfprintf+0x196>
     f12:	f5 01       	movw	r30, r10
     f14:	27 fc       	sbrc	r2, 7
     f16:	85 91       	lpm	r24, Z+
     f18:	27 fe       	sbrs	r2, 7
     f1a:	81 91       	ld	r24, Z+
     f1c:	5f 01       	movw	r10, r30
     f1e:	b7 01       	movw	r22, r14
     f20:	90 e0       	ldi	r25, 0x00	; 0
     f22:	25 d1       	rcall	.+586    	; 0x116e <fputc>
     f24:	31 10       	cpse	r3, r1
     f26:	3a 94       	dec	r3
     f28:	f1 e0       	ldi	r31, 0x01	; 1
     f2a:	4f 1a       	sub	r4, r31
     f2c:	51 08       	sbc	r5, r1
     f2e:	41 14       	cp	r4, r1
     f30:	51 04       	cpc	r5, r1
     f32:	79 f7       	brne	.-34     	; 0xf12 <vfprintf+0x1ac>
     f34:	de c0       	rjmp	.+444    	; 0x10f2 <vfprintf+0x38c>
     f36:	84 36       	cpi	r24, 0x64	; 100
     f38:	11 f0       	breq	.+4      	; 0xf3e <vfprintf+0x1d8>
     f3a:	89 36       	cpi	r24, 0x69	; 105
     f3c:	31 f5       	brne	.+76     	; 0xf8a <vfprintf+0x224>
     f3e:	f8 01       	movw	r30, r16
     f40:	27 ff       	sbrs	r18, 7
     f42:	07 c0       	rjmp	.+14     	; 0xf52 <vfprintf+0x1ec>
     f44:	60 81       	ld	r22, Z
     f46:	71 81       	ldd	r23, Z+1	; 0x01
     f48:	82 81       	ldd	r24, Z+2	; 0x02
     f4a:	93 81       	ldd	r25, Z+3	; 0x03
     f4c:	0c 5f       	subi	r16, 0xFC	; 252
     f4e:	1f 4f       	sbci	r17, 0xFF	; 255
     f50:	08 c0       	rjmp	.+16     	; 0xf62 <vfprintf+0x1fc>
     f52:	60 81       	ld	r22, Z
     f54:	71 81       	ldd	r23, Z+1	; 0x01
     f56:	88 27       	eor	r24, r24
     f58:	77 fd       	sbrc	r23, 7
     f5a:	80 95       	com	r24
     f5c:	98 2f       	mov	r25, r24
     f5e:	0e 5f       	subi	r16, 0xFE	; 254
     f60:	1f 4f       	sbci	r17, 0xFF	; 255
     f62:	2f 76       	andi	r18, 0x6F	; 111
     f64:	b2 2e       	mov	r11, r18
     f66:	97 ff       	sbrs	r25, 7
     f68:	09 c0       	rjmp	.+18     	; 0xf7c <vfprintf+0x216>
     f6a:	90 95       	com	r25
     f6c:	80 95       	com	r24
     f6e:	70 95       	com	r23
     f70:	61 95       	neg	r22
     f72:	7f 4f       	sbci	r23, 0xFF	; 255
     f74:	8f 4f       	sbci	r24, 0xFF	; 255
     f76:	9f 4f       	sbci	r25, 0xFF	; 255
     f78:	20 68       	ori	r18, 0x80	; 128
     f7a:	b2 2e       	mov	r11, r18
     f7c:	2a e0       	ldi	r18, 0x0A	; 10
     f7e:	30 e0       	ldi	r19, 0x00	; 0
     f80:	a4 01       	movw	r20, r8
     f82:	27 d1       	rcall	.+590    	; 0x11d2 <__ultoa_invert>
     f84:	a8 2e       	mov	r10, r24
     f86:	a8 18       	sub	r10, r8
     f88:	43 c0       	rjmp	.+134    	; 0x1010 <vfprintf+0x2aa>
     f8a:	85 37       	cpi	r24, 0x75	; 117
     f8c:	29 f4       	brne	.+10     	; 0xf98 <vfprintf+0x232>
     f8e:	2f 7e       	andi	r18, 0xEF	; 239
     f90:	b2 2e       	mov	r11, r18
     f92:	2a e0       	ldi	r18, 0x0A	; 10
     f94:	30 e0       	ldi	r19, 0x00	; 0
     f96:	25 c0       	rjmp	.+74     	; 0xfe2 <vfprintf+0x27c>
     f98:	f2 2f       	mov	r31, r18
     f9a:	f9 7f       	andi	r31, 0xF9	; 249
     f9c:	bf 2e       	mov	r11, r31
     f9e:	8f 36       	cpi	r24, 0x6F	; 111
     fa0:	c1 f0       	breq	.+48     	; 0xfd2 <vfprintf+0x26c>
     fa2:	18 f4       	brcc	.+6      	; 0xfaa <vfprintf+0x244>
     fa4:	88 35       	cpi	r24, 0x58	; 88
     fa6:	79 f0       	breq	.+30     	; 0xfc6 <vfprintf+0x260>
     fa8:	ad c0       	rjmp	.+346    	; 0x1104 <vfprintf+0x39e>
     faa:	80 37       	cpi	r24, 0x70	; 112
     fac:	19 f0       	breq	.+6      	; 0xfb4 <vfprintf+0x24e>
     fae:	88 37       	cpi	r24, 0x78	; 120
     fb0:	21 f0       	breq	.+8      	; 0xfba <vfprintf+0x254>
     fb2:	a8 c0       	rjmp	.+336    	; 0x1104 <vfprintf+0x39e>
     fb4:	2f 2f       	mov	r18, r31
     fb6:	20 61       	ori	r18, 0x10	; 16
     fb8:	b2 2e       	mov	r11, r18
     fba:	b4 fe       	sbrs	r11, 4
     fbc:	0d c0       	rjmp	.+26     	; 0xfd8 <vfprintf+0x272>
     fbe:	8b 2d       	mov	r24, r11
     fc0:	84 60       	ori	r24, 0x04	; 4
     fc2:	b8 2e       	mov	r11, r24
     fc4:	09 c0       	rjmp	.+18     	; 0xfd8 <vfprintf+0x272>
     fc6:	24 ff       	sbrs	r18, 4
     fc8:	0a c0       	rjmp	.+20     	; 0xfde <vfprintf+0x278>
     fca:	9f 2f       	mov	r25, r31
     fcc:	96 60       	ori	r25, 0x06	; 6
     fce:	b9 2e       	mov	r11, r25
     fd0:	06 c0       	rjmp	.+12     	; 0xfde <vfprintf+0x278>
     fd2:	28 e0       	ldi	r18, 0x08	; 8
     fd4:	30 e0       	ldi	r19, 0x00	; 0
     fd6:	05 c0       	rjmp	.+10     	; 0xfe2 <vfprintf+0x27c>
     fd8:	20 e1       	ldi	r18, 0x10	; 16
     fda:	30 e0       	ldi	r19, 0x00	; 0
     fdc:	02 c0       	rjmp	.+4      	; 0xfe2 <vfprintf+0x27c>
     fde:	20 e1       	ldi	r18, 0x10	; 16
     fe0:	32 e0       	ldi	r19, 0x02	; 2
     fe2:	f8 01       	movw	r30, r16
     fe4:	b7 fe       	sbrs	r11, 7
     fe6:	07 c0       	rjmp	.+14     	; 0xff6 <vfprintf+0x290>
     fe8:	60 81       	ld	r22, Z
     fea:	71 81       	ldd	r23, Z+1	; 0x01
     fec:	82 81       	ldd	r24, Z+2	; 0x02
     fee:	93 81       	ldd	r25, Z+3	; 0x03
     ff0:	0c 5f       	subi	r16, 0xFC	; 252
     ff2:	1f 4f       	sbci	r17, 0xFF	; 255
     ff4:	06 c0       	rjmp	.+12     	; 0x1002 <vfprintf+0x29c>
     ff6:	60 81       	ld	r22, Z
     ff8:	71 81       	ldd	r23, Z+1	; 0x01
     ffa:	80 e0       	ldi	r24, 0x00	; 0
     ffc:	90 e0       	ldi	r25, 0x00	; 0
     ffe:	0e 5f       	subi	r16, 0xFE	; 254
    1000:	1f 4f       	sbci	r17, 0xFF	; 255
    1002:	a4 01       	movw	r20, r8
    1004:	e6 d0       	rcall	.+460    	; 0x11d2 <__ultoa_invert>
    1006:	a8 2e       	mov	r10, r24
    1008:	a8 18       	sub	r10, r8
    100a:	fb 2d       	mov	r31, r11
    100c:	ff 77       	andi	r31, 0x7F	; 127
    100e:	bf 2e       	mov	r11, r31
    1010:	b6 fe       	sbrs	r11, 6
    1012:	0b c0       	rjmp	.+22     	; 0x102a <vfprintf+0x2c4>
    1014:	2b 2d       	mov	r18, r11
    1016:	2e 7f       	andi	r18, 0xFE	; 254
    1018:	a5 14       	cp	r10, r5
    101a:	50 f4       	brcc	.+20     	; 0x1030 <vfprintf+0x2ca>
    101c:	b4 fe       	sbrs	r11, 4
    101e:	0a c0       	rjmp	.+20     	; 0x1034 <vfprintf+0x2ce>
    1020:	b2 fc       	sbrc	r11, 2
    1022:	08 c0       	rjmp	.+16     	; 0x1034 <vfprintf+0x2ce>
    1024:	2b 2d       	mov	r18, r11
    1026:	2e 7e       	andi	r18, 0xEE	; 238
    1028:	05 c0       	rjmp	.+10     	; 0x1034 <vfprintf+0x2ce>
    102a:	7a 2c       	mov	r7, r10
    102c:	2b 2d       	mov	r18, r11
    102e:	03 c0       	rjmp	.+6      	; 0x1036 <vfprintf+0x2d0>
    1030:	7a 2c       	mov	r7, r10
    1032:	01 c0       	rjmp	.+2      	; 0x1036 <vfprintf+0x2d0>
    1034:	75 2c       	mov	r7, r5
    1036:	24 ff       	sbrs	r18, 4
    1038:	0d c0       	rjmp	.+26     	; 0x1054 <vfprintf+0x2ee>
    103a:	fe 01       	movw	r30, r28
    103c:	ea 0d       	add	r30, r10
    103e:	f1 1d       	adc	r31, r1
    1040:	80 81       	ld	r24, Z
    1042:	80 33       	cpi	r24, 0x30	; 48
    1044:	11 f4       	brne	.+4      	; 0x104a <vfprintf+0x2e4>
    1046:	29 7e       	andi	r18, 0xE9	; 233
    1048:	09 c0       	rjmp	.+18     	; 0x105c <vfprintf+0x2f6>
    104a:	22 ff       	sbrs	r18, 2
    104c:	06 c0       	rjmp	.+12     	; 0x105a <vfprintf+0x2f4>
    104e:	73 94       	inc	r7
    1050:	73 94       	inc	r7
    1052:	04 c0       	rjmp	.+8      	; 0x105c <vfprintf+0x2f6>
    1054:	82 2f       	mov	r24, r18
    1056:	86 78       	andi	r24, 0x86	; 134
    1058:	09 f0       	breq	.+2      	; 0x105c <vfprintf+0x2f6>
    105a:	73 94       	inc	r7
    105c:	23 fd       	sbrc	r18, 3
    105e:	12 c0       	rjmp	.+36     	; 0x1084 <vfprintf+0x31e>
    1060:	20 ff       	sbrs	r18, 0
    1062:	06 c0       	rjmp	.+12     	; 0x1070 <vfprintf+0x30a>
    1064:	5a 2c       	mov	r5, r10
    1066:	73 14       	cp	r7, r3
    1068:	18 f4       	brcc	.+6      	; 0x1070 <vfprintf+0x30a>
    106a:	53 0c       	add	r5, r3
    106c:	57 18       	sub	r5, r7
    106e:	73 2c       	mov	r7, r3
    1070:	73 14       	cp	r7, r3
    1072:	60 f4       	brcc	.+24     	; 0x108c <vfprintf+0x326>
    1074:	b7 01       	movw	r22, r14
    1076:	80 e2       	ldi	r24, 0x20	; 32
    1078:	90 e0       	ldi	r25, 0x00	; 0
    107a:	2c 87       	std	Y+12, r18	; 0x0c
    107c:	78 d0       	rcall	.+240    	; 0x116e <fputc>
    107e:	73 94       	inc	r7
    1080:	2c 85       	ldd	r18, Y+12	; 0x0c
    1082:	f6 cf       	rjmp	.-20     	; 0x1070 <vfprintf+0x30a>
    1084:	73 14       	cp	r7, r3
    1086:	10 f4       	brcc	.+4      	; 0x108c <vfprintf+0x326>
    1088:	37 18       	sub	r3, r7
    108a:	01 c0       	rjmp	.+2      	; 0x108e <vfprintf+0x328>
    108c:	31 2c       	mov	r3, r1
    108e:	24 ff       	sbrs	r18, 4
    1090:	11 c0       	rjmp	.+34     	; 0x10b4 <vfprintf+0x34e>
    1092:	b7 01       	movw	r22, r14
    1094:	80 e3       	ldi	r24, 0x30	; 48
    1096:	90 e0       	ldi	r25, 0x00	; 0
    1098:	2c 87       	std	Y+12, r18	; 0x0c
    109a:	69 d0       	rcall	.+210    	; 0x116e <fputc>
    109c:	2c 85       	ldd	r18, Y+12	; 0x0c
    109e:	22 ff       	sbrs	r18, 2
    10a0:	16 c0       	rjmp	.+44     	; 0x10ce <vfprintf+0x368>
    10a2:	21 ff       	sbrs	r18, 1
    10a4:	03 c0       	rjmp	.+6      	; 0x10ac <vfprintf+0x346>
    10a6:	88 e5       	ldi	r24, 0x58	; 88
    10a8:	90 e0       	ldi	r25, 0x00	; 0
    10aa:	02 c0       	rjmp	.+4      	; 0x10b0 <vfprintf+0x34a>
    10ac:	88 e7       	ldi	r24, 0x78	; 120
    10ae:	90 e0       	ldi	r25, 0x00	; 0
    10b0:	b7 01       	movw	r22, r14
    10b2:	0c c0       	rjmp	.+24     	; 0x10cc <vfprintf+0x366>
    10b4:	82 2f       	mov	r24, r18
    10b6:	86 78       	andi	r24, 0x86	; 134
    10b8:	51 f0       	breq	.+20     	; 0x10ce <vfprintf+0x368>
    10ba:	21 fd       	sbrc	r18, 1
    10bc:	02 c0       	rjmp	.+4      	; 0x10c2 <vfprintf+0x35c>
    10be:	80 e2       	ldi	r24, 0x20	; 32
    10c0:	01 c0       	rjmp	.+2      	; 0x10c4 <vfprintf+0x35e>
    10c2:	8b e2       	ldi	r24, 0x2B	; 43
    10c4:	27 fd       	sbrc	r18, 7
    10c6:	8d e2       	ldi	r24, 0x2D	; 45
    10c8:	b7 01       	movw	r22, r14
    10ca:	90 e0       	ldi	r25, 0x00	; 0
    10cc:	50 d0       	rcall	.+160    	; 0x116e <fputc>
    10ce:	a5 14       	cp	r10, r5
    10d0:	30 f4       	brcc	.+12     	; 0x10de <vfprintf+0x378>
    10d2:	b7 01       	movw	r22, r14
    10d4:	80 e3       	ldi	r24, 0x30	; 48
    10d6:	90 e0       	ldi	r25, 0x00	; 0
    10d8:	4a d0       	rcall	.+148    	; 0x116e <fputc>
    10da:	5a 94       	dec	r5
    10dc:	f8 cf       	rjmp	.-16     	; 0x10ce <vfprintf+0x368>
    10de:	aa 94       	dec	r10
    10e0:	f4 01       	movw	r30, r8
    10e2:	ea 0d       	add	r30, r10
    10e4:	f1 1d       	adc	r31, r1
    10e6:	80 81       	ld	r24, Z
    10e8:	b7 01       	movw	r22, r14
    10ea:	90 e0       	ldi	r25, 0x00	; 0
    10ec:	40 d0       	rcall	.+128    	; 0x116e <fputc>
    10ee:	a1 10       	cpse	r10, r1
    10f0:	f6 cf       	rjmp	.-20     	; 0x10de <vfprintf+0x378>
    10f2:	33 20       	and	r3, r3
    10f4:	09 f4       	brne	.+2      	; 0x10f8 <vfprintf+0x392>
    10f6:	5d ce       	rjmp	.-838    	; 0xdb2 <vfprintf+0x4c>
    10f8:	b7 01       	movw	r22, r14
    10fa:	80 e2       	ldi	r24, 0x20	; 32
    10fc:	90 e0       	ldi	r25, 0x00	; 0
    10fe:	37 d0       	rcall	.+110    	; 0x116e <fputc>
    1100:	3a 94       	dec	r3
    1102:	f7 cf       	rjmp	.-18     	; 0x10f2 <vfprintf+0x38c>
    1104:	f7 01       	movw	r30, r14
    1106:	86 81       	ldd	r24, Z+6	; 0x06
    1108:	97 81       	ldd	r25, Z+7	; 0x07
    110a:	02 c0       	rjmp	.+4      	; 0x1110 <vfprintf+0x3aa>
    110c:	8f ef       	ldi	r24, 0xFF	; 255
    110e:	9f ef       	ldi	r25, 0xFF	; 255
    1110:	2c 96       	adiw	r28, 0x0c	; 12
    1112:	0f b6       	in	r0, 0x3f	; 63
    1114:	f8 94       	cli
    1116:	de bf       	out	0x3e, r29	; 62
    1118:	0f be       	out	0x3f, r0	; 63
    111a:	cd bf       	out	0x3d, r28	; 61
    111c:	df 91       	pop	r29
    111e:	cf 91       	pop	r28
    1120:	1f 91       	pop	r17
    1122:	0f 91       	pop	r16
    1124:	ff 90       	pop	r15
    1126:	ef 90       	pop	r14
    1128:	df 90       	pop	r13
    112a:	cf 90       	pop	r12
    112c:	bf 90       	pop	r11
    112e:	af 90       	pop	r10
    1130:	9f 90       	pop	r9
    1132:	8f 90       	pop	r8
    1134:	7f 90       	pop	r7
    1136:	6f 90       	pop	r6
    1138:	5f 90       	pop	r5
    113a:	4f 90       	pop	r4
    113c:	3f 90       	pop	r3
    113e:	2f 90       	pop	r2
    1140:	08 95       	ret

00001142 <strnlen_P>:
    1142:	fc 01       	movw	r30, r24
    1144:	05 90       	lpm	r0, Z+
    1146:	61 50       	subi	r22, 0x01	; 1
    1148:	70 40       	sbci	r23, 0x00	; 0
    114a:	01 10       	cpse	r0, r1
    114c:	d8 f7       	brcc	.-10     	; 0x1144 <strnlen_P+0x2>
    114e:	80 95       	com	r24
    1150:	90 95       	com	r25
    1152:	8e 0f       	add	r24, r30
    1154:	9f 1f       	adc	r25, r31
    1156:	08 95       	ret

00001158 <strnlen>:
    1158:	fc 01       	movw	r30, r24
    115a:	61 50       	subi	r22, 0x01	; 1
    115c:	70 40       	sbci	r23, 0x00	; 0
    115e:	01 90       	ld	r0, Z+
    1160:	01 10       	cpse	r0, r1
    1162:	d8 f7       	brcc	.-10     	; 0x115a <strnlen+0x2>
    1164:	80 95       	com	r24
    1166:	90 95       	com	r25
    1168:	8e 0f       	add	r24, r30
    116a:	9f 1f       	adc	r25, r31
    116c:	08 95       	ret

0000116e <fputc>:
    116e:	0f 93       	push	r16
    1170:	1f 93       	push	r17
    1172:	cf 93       	push	r28
    1174:	df 93       	push	r29
    1176:	18 2f       	mov	r17, r24
    1178:	09 2f       	mov	r16, r25
    117a:	eb 01       	movw	r28, r22
    117c:	8b 81       	ldd	r24, Y+3	; 0x03
    117e:	81 fd       	sbrc	r24, 1
    1180:	03 c0       	rjmp	.+6      	; 0x1188 <fputc+0x1a>
    1182:	8f ef       	ldi	r24, 0xFF	; 255
    1184:	9f ef       	ldi	r25, 0xFF	; 255
    1186:	20 c0       	rjmp	.+64     	; 0x11c8 <fputc+0x5a>
    1188:	82 ff       	sbrs	r24, 2
    118a:	10 c0       	rjmp	.+32     	; 0x11ac <fputc+0x3e>
    118c:	4e 81       	ldd	r20, Y+6	; 0x06
    118e:	5f 81       	ldd	r21, Y+7	; 0x07
    1190:	2c 81       	ldd	r18, Y+4	; 0x04
    1192:	3d 81       	ldd	r19, Y+5	; 0x05
    1194:	42 17       	cp	r20, r18
    1196:	53 07       	cpc	r21, r19
    1198:	7c f4       	brge	.+30     	; 0x11b8 <fputc+0x4a>
    119a:	e8 81       	ld	r30, Y
    119c:	f9 81       	ldd	r31, Y+1	; 0x01
    119e:	9f 01       	movw	r18, r30
    11a0:	2f 5f       	subi	r18, 0xFF	; 255
    11a2:	3f 4f       	sbci	r19, 0xFF	; 255
    11a4:	39 83       	std	Y+1, r19	; 0x01
    11a6:	28 83       	st	Y, r18
    11a8:	10 83       	st	Z, r17
    11aa:	06 c0       	rjmp	.+12     	; 0x11b8 <fputc+0x4a>
    11ac:	e8 85       	ldd	r30, Y+8	; 0x08
    11ae:	f9 85       	ldd	r31, Y+9	; 0x09
    11b0:	81 2f       	mov	r24, r17
    11b2:	09 95       	icall
    11b4:	89 2b       	or	r24, r25
    11b6:	29 f7       	brne	.-54     	; 0x1182 <fputc+0x14>
    11b8:	2e 81       	ldd	r18, Y+6	; 0x06
    11ba:	3f 81       	ldd	r19, Y+7	; 0x07
    11bc:	2f 5f       	subi	r18, 0xFF	; 255
    11be:	3f 4f       	sbci	r19, 0xFF	; 255
    11c0:	3f 83       	std	Y+7, r19	; 0x07
    11c2:	2e 83       	std	Y+6, r18	; 0x06
    11c4:	81 2f       	mov	r24, r17
    11c6:	90 2f       	mov	r25, r16
    11c8:	df 91       	pop	r29
    11ca:	cf 91       	pop	r28
    11cc:	1f 91       	pop	r17
    11ce:	0f 91       	pop	r16
    11d0:	08 95       	ret

000011d2 <__ultoa_invert>:
    11d2:	fa 01       	movw	r30, r20
    11d4:	aa 27       	eor	r26, r26
    11d6:	28 30       	cpi	r18, 0x08	; 8
    11d8:	51 f1       	breq	.+84     	; 0x122e <__ultoa_invert+0x5c>
    11da:	20 31       	cpi	r18, 0x10	; 16
    11dc:	81 f1       	breq	.+96     	; 0x123e <__ultoa_invert+0x6c>
    11de:	e8 94       	clt
    11e0:	6f 93       	push	r22
    11e2:	6e 7f       	andi	r22, 0xFE	; 254
    11e4:	6e 5f       	subi	r22, 0xFE	; 254
    11e6:	7f 4f       	sbci	r23, 0xFF	; 255
    11e8:	8f 4f       	sbci	r24, 0xFF	; 255
    11ea:	9f 4f       	sbci	r25, 0xFF	; 255
    11ec:	af 4f       	sbci	r26, 0xFF	; 255
    11ee:	b1 e0       	ldi	r27, 0x01	; 1
    11f0:	3e d0       	rcall	.+124    	; 0x126e <__ultoa_invert+0x9c>
    11f2:	b4 e0       	ldi	r27, 0x04	; 4
    11f4:	3c d0       	rcall	.+120    	; 0x126e <__ultoa_invert+0x9c>
    11f6:	67 0f       	add	r22, r23
    11f8:	78 1f       	adc	r23, r24
    11fa:	89 1f       	adc	r24, r25
    11fc:	9a 1f       	adc	r25, r26
    11fe:	a1 1d       	adc	r26, r1
    1200:	68 0f       	add	r22, r24
    1202:	79 1f       	adc	r23, r25
    1204:	8a 1f       	adc	r24, r26
    1206:	91 1d       	adc	r25, r1
    1208:	a1 1d       	adc	r26, r1
    120a:	6a 0f       	add	r22, r26
    120c:	71 1d       	adc	r23, r1
    120e:	81 1d       	adc	r24, r1
    1210:	91 1d       	adc	r25, r1
    1212:	a1 1d       	adc	r26, r1
    1214:	20 d0       	rcall	.+64     	; 0x1256 <__ultoa_invert+0x84>
    1216:	09 f4       	brne	.+2      	; 0x121a <__ultoa_invert+0x48>
    1218:	68 94       	set
    121a:	3f 91       	pop	r19
    121c:	2a e0       	ldi	r18, 0x0A	; 10
    121e:	26 9f       	mul	r18, r22
    1220:	11 24       	eor	r1, r1
    1222:	30 19       	sub	r19, r0
    1224:	30 5d       	subi	r19, 0xD0	; 208
    1226:	31 93       	st	Z+, r19
    1228:	de f6       	brtc	.-74     	; 0x11e0 <__ultoa_invert+0xe>
    122a:	cf 01       	movw	r24, r30
    122c:	08 95       	ret
    122e:	46 2f       	mov	r20, r22
    1230:	47 70       	andi	r20, 0x07	; 7
    1232:	40 5d       	subi	r20, 0xD0	; 208
    1234:	41 93       	st	Z+, r20
    1236:	b3 e0       	ldi	r27, 0x03	; 3
    1238:	0f d0       	rcall	.+30     	; 0x1258 <__ultoa_invert+0x86>
    123a:	c9 f7       	brne	.-14     	; 0x122e <__ultoa_invert+0x5c>
    123c:	f6 cf       	rjmp	.-20     	; 0x122a <__ultoa_invert+0x58>
    123e:	46 2f       	mov	r20, r22
    1240:	4f 70       	andi	r20, 0x0F	; 15
    1242:	40 5d       	subi	r20, 0xD0	; 208
    1244:	4a 33       	cpi	r20, 0x3A	; 58
    1246:	18 f0       	brcs	.+6      	; 0x124e <__ultoa_invert+0x7c>
    1248:	49 5d       	subi	r20, 0xD9	; 217
    124a:	31 fd       	sbrc	r19, 1
    124c:	40 52       	subi	r20, 0x20	; 32
    124e:	41 93       	st	Z+, r20
    1250:	02 d0       	rcall	.+4      	; 0x1256 <__ultoa_invert+0x84>
    1252:	a9 f7       	brne	.-22     	; 0x123e <__ultoa_invert+0x6c>
    1254:	ea cf       	rjmp	.-44     	; 0x122a <__ultoa_invert+0x58>
    1256:	b4 e0       	ldi	r27, 0x04	; 4
    1258:	a6 95       	lsr	r26
    125a:	97 95       	ror	r25
    125c:	87 95       	ror	r24
    125e:	77 95       	ror	r23
    1260:	67 95       	ror	r22
    1262:	ba 95       	dec	r27
    1264:	c9 f7       	brne	.-14     	; 0x1258 <__ultoa_invert+0x86>
    1266:	00 97       	sbiw	r24, 0x00	; 0
    1268:	61 05       	cpc	r22, r1
    126a:	71 05       	cpc	r23, r1
    126c:	08 95       	ret
    126e:	9b 01       	movw	r18, r22
    1270:	ac 01       	movw	r20, r24
    1272:	0a 2e       	mov	r0, r26
    1274:	06 94       	lsr	r0
    1276:	57 95       	ror	r21
    1278:	47 95       	ror	r20
    127a:	37 95       	ror	r19
    127c:	27 95       	ror	r18
    127e:	ba 95       	dec	r27
    1280:	c9 f7       	brne	.-14     	; 0x1274 <__ultoa_invert+0xa2>
    1282:	62 0f       	add	r22, r18
    1284:	73 1f       	adc	r23, r19
    1286:	84 1f       	adc	r24, r20
    1288:	95 1f       	adc	r25, r21
    128a:	a0 1d       	adc	r26, r0
    128c:	08 95       	ret

0000128e <_exit>:
    128e:	f8 94       	cli

00001290 <__stop_program>:
    1290:	ff cf       	rjmp	.-2      	; 0x1290 <__stop_program>
