
Open.elf:     file format elf32-avr

Sections:
Idx Name          Size      VMA       LMA       File off  Algn
  0 .data         00000062  00800200  0000133e  000013d2  2**0
                  CONTENTS, ALLOC, LOAD, DATA
  1 .text         0000133e  00000000  00000000  00000094  2**1
                  CONTENTS, ALLOC, LOAD, READONLY, CODE
  2 .bss          0000014b  00800262  00800262  00001434  2**0
                  ALLOC
  3 .comment      0000005c  00000000  00000000  00001434  2**0
                  CONTENTS, READONLY
  4 .debug_aranges 00000108  00000000  00000000  00001490  2**0
                  CONTENTS, READONLY, DEBUGGING
  5 .debug_info   0000146b  00000000  00000000  00001598  2**0
                  CONTENTS, READONLY, DEBUGGING
  6 .debug_abbrev 000008c4  00000000  00000000  00002a03  2**0
                  CONTENTS, READONLY, DEBUGGING
  7 .debug_line   00000946  00000000  00000000  000032c7  2**0
                  CONTENTS, READONLY, DEBUGGING
  8 .debug_frame  000004d0  00000000  00000000  00003c10  2**2
                  CONTENTS, READONLY, DEBUGGING
  9 .debug_str    00000682  00000000  00000000  000040e0  2**0
                  CONTENTS, READONLY, DEBUGGING
 10 .debug_loc    00000d21  00000000  00000000  00004762  2**0
                  CONTENTS, READONLY, DEBUGGING
 11 .debug_ranges 00000050  00000000  00000000  00005483  2**0
                  CONTENTS, READONLY, DEBUGGING

Disassembly of section .text:

00000000 <__vectors>:
       0:	8f c0       	rjmp	.+286    	; 0x120 <__ctors_end>
       2:	00 00       	nop
       4:	ab c0       	rjmp	.+342    	; 0x15c <__bad_interrupt>
       6:	00 00       	nop
       8:	a9 c0       	rjmp	.+338    	; 0x15c <__bad_interrupt>
       a:	00 00       	nop
       c:	a7 c0       	rjmp	.+334    	; 0x15c <__bad_interrupt>
       e:	00 00       	nop
      10:	a5 c0       	rjmp	.+330    	; 0x15c <__bad_interrupt>
      12:	00 00       	nop
      14:	a3 c0       	rjmp	.+326    	; 0x15c <__bad_interrupt>
      16:	00 00       	nop
      18:	a1 c0       	rjmp	.+322    	; 0x15c <__bad_interrupt>
      1a:	00 00       	nop
      1c:	9f c0       	rjmp	.+318    	; 0x15c <__bad_interrupt>
      1e:	00 00       	nop
      20:	9d c0       	rjmp	.+314    	; 0x15c <__bad_interrupt>
      22:	00 00       	nop
      24:	9b c0       	rjmp	.+310    	; 0x15c <__bad_interrupt>
      26:	00 00       	nop
      28:	99 c0       	rjmp	.+306    	; 0x15c <__bad_interrupt>
      2a:	00 00       	nop
      2c:	97 c0       	rjmp	.+302    	; 0x15c <__bad_interrupt>
      2e:	00 00       	nop
      30:	95 c0       	rjmp	.+298    	; 0x15c <__bad_interrupt>
      32:	00 00       	nop
      34:	93 c0       	rjmp	.+294    	; 0x15c <__bad_interrupt>
      36:	00 00       	nop
      38:	91 c0       	rjmp	.+290    	; 0x15c <__bad_interrupt>
      3a:	00 00       	nop
      3c:	8f c0       	rjmp	.+286    	; 0x15c <__bad_interrupt>
      3e:	00 00       	nop
      40:	8d c0       	rjmp	.+282    	; 0x15c <__bad_interrupt>
      42:	00 00       	nop
      44:	8b c0       	rjmp	.+278    	; 0x15c <__bad_interrupt>
      46:	00 00       	nop
      48:	89 c0       	rjmp	.+274    	; 0x15c <__bad_interrupt>
      4a:	00 00       	nop
      4c:	87 c0       	rjmp	.+270    	; 0x15c <__bad_interrupt>
      4e:	00 00       	nop
      50:	85 c0       	rjmp	.+266    	; 0x15c <__bad_interrupt>
      52:	00 00       	nop
      54:	83 c0       	rjmp	.+262    	; 0x15c <__bad_interrupt>
      56:	00 00       	nop
      58:	81 c0       	rjmp	.+258    	; 0x15c <__bad_interrupt>
      5a:	00 00       	nop
      5c:	7f c0       	rjmp	.+254    	; 0x15c <__bad_interrupt>
      5e:	00 00       	nop
      60:	7d c0       	rjmp	.+250    	; 0x15c <__bad_interrupt>
      62:	00 00       	nop
      64:	7b c0       	rjmp	.+246    	; 0x15c <__bad_interrupt>
      66:	00 00       	nop
      68:	79 c0       	rjmp	.+242    	; 0x15c <__bad_interrupt>
      6a:	00 00       	nop
      6c:	77 c0       	rjmp	.+238    	; 0x15c <__bad_interrupt>
      6e:	00 00       	nop
      70:	75 c0       	rjmp	.+234    	; 0x15c <__bad_interrupt>
      72:	00 00       	nop
      74:	73 c0       	rjmp	.+230    	; 0x15c <__bad_interrupt>
      76:	00 00       	nop
      78:	71 c0       	rjmp	.+226    	; 0x15c <__bad_interrupt>
      7a:	00 00       	nop
      7c:	6f c0       	rjmp	.+222    	; 0x15c <__bad_interrupt>
      7e:	00 00       	nop
      80:	6d c0       	rjmp	.+218    	; 0x15c <__bad_interrupt>
      82:	00 00       	nop
      84:	6b c0       	rjmp	.+214    	; 0x15c <__bad_interrupt>
      86:	00 00       	nop
      88:	69 c0       	rjmp	.+210    	; 0x15c <__bad_interrupt>
      8a:	00 00       	nop
      8c:	67 c0       	rjmp	.+206    	; 0x15c <__bad_interrupt>
      8e:	00 00       	nop
      90:	65 c0       	rjmp	.+202    	; 0x15c <__bad_interrupt>
      92:	00 00       	nop
      94:	63 c0       	rjmp	.+198    	; 0x15c <__bad_interrupt>
      96:	00 00       	nop
      98:	61 c0       	rjmp	.+194    	; 0x15c <__bad_interrupt>
      9a:	00 00       	nop
      9c:	5f c0       	rjmp	.+190    	; 0x15c <__bad_interrupt>
      9e:	00 00       	nop
      a0:	5d c0       	rjmp	.+186    	; 0x15c <__bad_interrupt>
      a2:	00 00       	nop
      a4:	5b c0       	rjmp	.+182    	; 0x15c <__bad_interrupt>
      a6:	00 00       	nop
      a8:	59 c0       	rjmp	.+178    	; 0x15c <__bad_interrupt>
      aa:	00 00       	nop
      ac:	57 c0       	rjmp	.+174    	; 0x15c <__bad_interrupt>
      ae:	00 00       	nop
      b0:	55 c0       	rjmp	.+170    	; 0x15c <__bad_interrupt>
      b2:	00 00       	nop
      b4:	53 c0       	rjmp	.+166    	; 0x15c <__bad_interrupt>
      b6:	00 00       	nop
      b8:	51 c0       	rjmp	.+162    	; 0x15c <__bad_interrupt>
      ba:	00 00       	nop
      bc:	4f c0       	rjmp	.+158    	; 0x15c <__bad_interrupt>
      be:	00 00       	nop
      c0:	4d c0       	rjmp	.+154    	; 0x15c <__bad_interrupt>
      c2:	00 00       	nop
      c4:	4b c0       	rjmp	.+150    	; 0x15c <__bad_interrupt>
      c6:	00 00       	nop
      c8:	49 c0       	rjmp	.+146    	; 0x15c <__bad_interrupt>
      ca:	00 00       	nop
      cc:	47 c0       	rjmp	.+142    	; 0x15c <__bad_interrupt>
      ce:	00 00       	nop
      d0:	45 c0       	rjmp	.+138    	; 0x15c <__bad_interrupt>
      d2:	00 00       	nop
      d4:	43 c0       	rjmp	.+134    	; 0x15c <__bad_interrupt>
      d6:	00 00       	nop
      d8:	41 c0       	rjmp	.+130    	; 0x15c <__bad_interrupt>
      da:	00 00       	nop
      dc:	3f c0       	rjmp	.+126    	; 0x15c <__bad_interrupt>
      de:	00 00       	nop
      e0:	3d c0       	rjmp	.+122    	; 0x15c <__bad_interrupt>
      e2:	00 00       	nop
      e4:	3b c0       	rjmp	.+118    	; 0x15c <__bad_interrupt>
      e6:	00 00       	nop
      e8:	39 c0       	rjmp	.+114    	; 0x15c <__bad_interrupt>
      ea:	00 00       	nop
      ec:	37 c0       	rjmp	.+110    	; 0x15c <__bad_interrupt>
      ee:	00 00       	nop
      f0:	35 c0       	rjmp	.+106    	; 0x15c <__bad_interrupt>
      f2:	00 00       	nop
      f4:	33 c0       	rjmp	.+102    	; 0x15c <__bad_interrupt>
      f6:	00 00       	nop
      f8:	31 c0       	rjmp	.+98     	; 0x15c <__bad_interrupt>
      fa:	00 00       	nop
      fc:	2f c0       	rjmp	.+94     	; 0x15c <__bad_interrupt>
      fe:	00 00       	nop
     100:	2d c0       	rjmp	.+90     	; 0x15c <__bad_interrupt>
     102:	00 00       	nop
     104:	2b c0       	rjmp	.+86     	; 0x15c <__bad_interrupt>
     106:	00 00       	nop
     108:	29 c0       	rjmp	.+82     	; 0x15c <__bad_interrupt>
     10a:	00 00       	nop
     10c:	27 c0       	rjmp	.+78     	; 0x15c <__bad_interrupt>
     10e:	00 00       	nop
     110:	25 c0       	rjmp	.+74     	; 0x15c <__bad_interrupt>
     112:	00 00       	nop
     114:	23 c0       	rjmp	.+70     	; 0x15c <__bad_interrupt>
     116:	00 00       	nop
     118:	21 c0       	rjmp	.+66     	; 0x15c <__bad_interrupt>
     11a:	00 00       	nop
     11c:	1f c0       	rjmp	.+62     	; 0x15c <__bad_interrupt>
	...

00000120 <__ctors_end>:
     120:	11 24       	eor	r1, r1
     122:	1f be       	out	0x3f, r1	; 63
     124:	cf ef       	ldi	r28, 0xFF	; 255
     126:	d1 e4       	ldi	r29, 0x41	; 65
     128:	de bf       	out	0x3e, r29	; 62
     12a:	cd bf       	out	0x3d, r28	; 61

0000012c <__do_copy_data>:
     12c:	12 e0       	ldi	r17, 0x02	; 2
     12e:	a0 e0       	ldi	r26, 0x00	; 0
     130:	b2 e0       	ldi	r27, 0x02	; 2
     132:	ee e3       	ldi	r30, 0x3E	; 62
     134:	f3 e1       	ldi	r31, 0x13	; 19
     136:	00 e0       	ldi	r16, 0x00	; 0
     138:	0b bf       	out	0x3b, r16	; 59
     13a:	02 c0       	rjmp	.+4      	; 0x140 <__do_copy_data+0x14>
     13c:	07 90       	elpm	r0, Z+
     13e:	0d 92       	st	X+, r0
     140:	a2 36       	cpi	r26, 0x62	; 98
     142:	b1 07       	cpc	r27, r17
     144:	d9 f7       	brne	.-10     	; 0x13c <__do_copy_data+0x10>

00000146 <__do_clear_bss>:
     146:	23 e0       	ldi	r18, 0x03	; 3
     148:	a2 e6       	ldi	r26, 0x62	; 98
     14a:	b2 e0       	ldi	r27, 0x02	; 2
     14c:	01 c0       	rjmp	.+2      	; 0x150 <.do_clear_bss_start>

0000014e <.do_clear_bss_loop>:
     14e:	1d 92       	st	X+, r1

00000150 <.do_clear_bss_start>:
     150:	ad 3a       	cpi	r26, 0xAD	; 173
     152:	b2 07       	cpc	r27, r18
     154:	e1 f7       	brne	.-8      	; 0x14e <.do_clear_bss_loop>
     156:	b9 d2       	rcall	.+1394   	; 0x6ca <main>
     158:	0c 94 9d 09 	jmp	0x133a	; 0x133a <_exit>

0000015c <__bad_interrupt>:
     15c:	51 cf       	rjmp	.-350    	; 0x0 <__vectors>

0000015e <button_init>:
     15e:	6d 98       	cbi	0x0d, 5	; 13
     160:	75 9a       	sbi	0x0e, 5	; 14
     162:	08 95       	ret

00000164 <button_pressed>:
     164:	81 e0       	ldi	r24, 0x01	; 1
     166:	65 99       	sbic	0x0c, 5	; 12
     168:	80 e0       	ldi	r24, 0x00	; 0
     16a:	08 95       	ret

0000016c <button_released>:
     16c:	fb df       	rcall	.-10     	; 0x164 <button_pressed>
     16e:	91 e0       	ldi	r25, 0x01	; 1
     170:	89 27       	eor	r24, r25
     172:	08 95       	ret

00000174 <leds_init>:
     174:	6a 9a       	sbi	0x0d, 2	; 13
     176:	6b 9a       	sbi	0x0d, 3	; 13
     178:	6c 9a       	sbi	0x0d, 4	; 13
     17a:	72 9a       	sbi	0x0e, 2	; 14
     17c:	73 9a       	sbi	0x0e, 3	; 14
     17e:	74 9a       	sbi	0x0e, 4	; 14
     180:	08 95       	ret

00000182 <leds_on>:
     182:	81 30       	cpi	r24, 0x01	; 1
     184:	11 f4       	brne	.+4      	; 0x18a <leds_on+0x8>
     186:	72 98       	cbi	0x0e, 2	; 14
     188:	08 95       	ret
     18a:	82 30       	cpi	r24, 0x02	; 2
     18c:	11 f4       	brne	.+4      	; 0x192 <leds_on+0x10>
     18e:	73 98       	cbi	0x0e, 3	; 14
     190:	08 95       	ret
     192:	83 30       	cpi	r24, 0x03	; 3
     194:	09 f4       	brne	.+2      	; 0x198 <leds_on+0x16>
     196:	74 98       	cbi	0x0e, 4	; 14
     198:	08 95       	ret

0000019a <leds_off>:
     19a:	81 30       	cpi	r24, 0x01	; 1
     19c:	11 f4       	brne	.+4      	; 0x1a2 <leds_off+0x8>
     19e:	72 9a       	sbi	0x0e, 2	; 14
     1a0:	08 95       	ret
     1a2:	82 30       	cpi	r24, 0x02	; 2
     1a4:	11 f4       	brne	.+4      	; 0x1aa <leds_off+0x10>
     1a6:	73 9a       	sbi	0x0e, 3	; 14
     1a8:	08 95       	ret
     1aa:	83 30       	cpi	r24, 0x03	; 3
     1ac:	09 f4       	brne	.+2      	; 0x1b0 <leds_off+0x16>
     1ae:	74 9a       	sbi	0x0e, 4	; 14
     1b0:	08 95       	ret

000001b2 <radio_init>:
     1b2:	ff 92       	push	r15
     1b4:	0f 93       	push	r16
     1b6:	1f 93       	push	r17
     1b8:	cf 93       	push	r28
     1ba:	df 93       	push	r29
     1bc:	08 2f       	mov	r16, r24
     1be:	19 2f       	mov	r17, r25
     1c0:	f6 2e       	mov	r15, r22
     1c2:	c9 e3       	ldi	r28, 0x39	; 57
     1c4:	d1 e0       	ldi	r29, 0x01	; 1
     1c6:	18 82       	st	Y, r1
     1c8:	86 e0       	ldi	r24, 0x06	; 6
     1ca:	90 e0       	ldi	r25, 0x00	; 0
     1cc:	be d3       	rcall	.+1916   	; 0x94a <hw_timer_wait_micro>
     1ce:	81 e0       	ldi	r24, 0x01	; 1
     1d0:	88 83       	st	Y, r24
     1d2:	80 91 41 01 	lds	r24, 0x0141
     1d6:	80 93 62 02 	sts	0x0262, r24
     1da:	88 23       	and	r24, r24
     1dc:	51 f4       	brne	.+20     	; 0x1f2 <radio_init+0x40>
     1de:	88 e0       	ldi	r24, 0x08	; 8
     1e0:	80 93 42 01 	sts	0x0142, r24
     1e4:	8e ef       	ldi	r24, 0xFE	; 254
     1e6:	91 e0       	ldi	r25, 0x01	; 1
     1e8:	b0 d3       	rcall	.+1888   	; 0x94a <hw_timer_wait_micro>
     1ea:	80 91 41 01 	lds	r24, 0x0141
     1ee:	80 93 62 02 	sts	0x0262, r24
     1f2:	8b e0       	ldi	r24, 0x0B	; 11
     1f4:	80 93 48 01 	sts	0x0148, r24
     1f8:	8f ef       	ldi	r24, 0xFF	; 255
     1fa:	80 93 4f 01 	sts	0x014F, r24
     1fe:	00 93 63 02 	sts	0x0263, r16
     202:	10 93 64 02 	sts	0x0264, r17
     206:	00 93 60 01 	sts	0x0160, r16
     20a:	10 93 61 01 	sts	0x0161, r17
     20e:	10 92 62 01 	sts	0x0162, r1
     212:	10 92 63 01 	sts	0x0163, r1
     216:	80 91 41 01 	lds	r24, 0x0141
     21a:	80 93 62 02 	sts	0x0262, r24
     21e:	f0 92 65 02 	sts	0x0265, r15
     222:	df 91       	pop	r29
     224:	cf 91       	pop	r28
     226:	1f 91       	pop	r17
     228:	0f 91       	pop	r16
     22a:	ff 90       	pop	r15
     22c:	08 95       	ret

0000022e <radio_start>:
     22e:	8f ef       	ldi	r24, 0xFF	; 255
     230:	80 93 4f 01 	sts	0x014F, r24
     234:	86 e0       	ldi	r24, 0x06	; 6
     236:	80 93 42 01 	sts	0x0142, r24
     23a:	e1 e4       	ldi	r30, 0x41	; 65
     23c:	f1 e0       	ldi	r31, 0x01	; 1
     23e:	80 81       	ld	r24, Z
     240:	8f 71       	andi	r24, 0x1F	; 31
     242:	86 30       	cpi	r24, 0x06	; 6
     244:	e1 f7       	brne	.-8      	; 0x23e <radio_start+0x10>
     246:	ec e4       	ldi	r30, 0x4C	; 76
     248:	f1 e0       	ldi	r31, 0x01	; 1
     24a:	80 81       	ld	r24, Z
     24c:	80 68       	ori	r24, 0x80	; 128
     24e:	80 83       	st	Z, r24
     250:	08 95       	ret

00000252 <radio_tx_done>:
     252:	80 91 66 02 	lds	r24, 0x0266
     256:	10 92 66 02 	sts	0x0266, r1
     25a:	08 95       	ret

0000025c <radio_send>:
     25c:	2f ef       	ldi	r18, 0xFF	; 255
     25e:	20 93 4f 01 	sts	0x014F, r18
     262:	20 91 41 01 	lds	r18, 0x0141
     266:	2f 71       	andi	r18, 0x1F	; 31
     268:	29 30       	cpi	r18, 0x09	; 9
     26a:	41 f0       	breq	.+16     	; 0x27c <radio_send+0x20>
     26c:	29 e0       	ldi	r18, 0x09	; 9
     26e:	20 93 42 01 	sts	0x0142, r18
     272:	e1 e4       	ldi	r30, 0x41	; 65
     274:	f1 e0       	ldi	r31, 0x01	; 1
     276:	20 81       	ld	r18, Z
     278:	29 30       	cpi	r18, 0x09	; 9
     27a:	e9 f7       	brne	.-6      	; 0x276 <radio_send+0x1a>
     27c:	26 2f       	mov	r18, r22
     27e:	23 5f       	subi	r18, 0xF3	; 243
     280:	20 93 80 01 	sts	0x0180, r18
     284:	20 e2       	ldi	r18, 0x20	; 32
     286:	20 93 81 01 	sts	0x0181, r18
     28a:	22 e2       	ldi	r18, 0x22	; 34
     28c:	20 93 82 01 	sts	0x0182, r18
     290:	21 e0       	ldi	r18, 0x01	; 1
     292:	20 93 83 01 	sts	0x0183, r18
     296:	10 92 84 01 	sts	0x0184, r1
     29a:	10 92 85 01 	sts	0x0185, r1
     29e:	50 93 86 01 	sts	0x0186, r21
     2a2:	40 93 87 01 	sts	0x0187, r20
     2a6:	10 92 88 01 	sts	0x0188, r1
     2aa:	10 92 89 01 	sts	0x0189, r1
     2ae:	20 91 64 02 	lds	r18, 0x0264
     2b2:	20 93 8a 01 	sts	0x018A, r18
     2b6:	20 91 63 02 	lds	r18, 0x0263
     2ba:	20 93 8b 01 	sts	0x018B, r18
     2be:	66 23       	and	r22, r22
     2c0:	91 f0       	breq	.+36     	; 0x2e6 <radio_send+0x8a>
     2c2:	a8 2f       	mov	r26, r24
     2c4:	b9 2f       	mov	r27, r25
     2c6:	61 50       	subi	r22, 0x01	; 1
     2c8:	70 e0       	ldi	r23, 0x00	; 0
     2ca:	cb 01       	movw	r24, r22
     2cc:	83 57       	subi	r24, 0x73	; 115
     2ce:	9e 4f       	sbci	r25, 0xFE	; 254
     2d0:	ec e8       	ldi	r30, 0x8C	; 140
     2d2:	f1 e0       	ldi	r31, 0x01	; 1
     2d4:	2d 91       	ld	r18, X+
     2d6:	21 93       	st	Z+, r18
     2d8:	e8 17       	cp	r30, r24
     2da:	f9 07       	cpc	r31, r25
     2dc:	d9 f7       	brne	.-10     	; 0x2d4 <radio_send+0x78>
     2de:	fb 01       	movw	r30, r22
     2e0:	e3 57       	subi	r30, 0x73	; 115
     2e2:	fe 4f       	sbci	r31, 0xFE	; 254
     2e4:	02 c0       	rjmp	.+4      	; 0x2ea <radio_send+0x8e>
     2e6:	ec e8       	ldi	r30, 0x8C	; 140
     2e8:	f1 e0       	ldi	r31, 0x01	; 1
     2ea:	10 82       	st	Z, r1
     2ec:	11 82       	std	Z+1, r1	; 0x01
     2ee:	82 e0       	ldi	r24, 0x02	; 2
     2f0:	80 93 42 01 	sts	0x0142, r24
     2f4:	ef e4       	ldi	r30, 0x4F	; 79
     2f6:	f1 e0       	ldi	r31, 0x01	; 1
     2f8:	80 81       	ld	r24, Z
     2fa:	86 ff       	sbrs	r24, 6
     2fc:	fd cf       	rjmp	.-6      	; 0x2f8 <radio_send+0x9c>
     2fe:	8f ef       	ldi	r24, 0xFF	; 255
     300:	80 93 4f 01 	sts	0x014F, r24
     304:	86 e0       	ldi	r24, 0x06	; 6
     306:	80 93 42 01 	sts	0x0142, r24
     30a:	e1 e4       	ldi	r30, 0x41	; 65
     30c:	f1 e0       	ldi	r31, 0x01	; 1
     30e:	80 81       	ld	r24, Z
     310:	8f 71       	andi	r24, 0x1F	; 31
     312:	86 30       	cpi	r24, 0x06	; 6
     314:	e1 f7       	brne	.-8      	; 0x30e <radio_send+0xb2>
     316:	81 e0       	ldi	r24, 0x01	; 1
     318:	80 93 66 02 	sts	0x0266, r24
     31c:	80 91 41 01 	lds	r24, 0x0141
     320:	80 93 62 02 	sts	0x0262, r24
     324:	08 95       	ret

00000326 <radio_rxed>:
     326:	90 91 4f 01 	lds	r25, 0x014F
     32a:	81 e0       	ldi	r24, 0x01	; 1
     32c:	93 ff       	sbrs	r25, 3
     32e:	80 e0       	ldi	r24, 0x00	; 0
     330:	08 95       	ret

00000332 <radio_recv>:
     332:	8f 92       	push	r8
     334:	9f 92       	push	r9
     336:	af 92       	push	r10
     338:	bf 92       	push	r11
     33a:	cf 92       	push	r12
     33c:	df 92       	push	r13
     33e:	ef 92       	push	r14
     340:	ff 92       	push	r15
     342:	0f 93       	push	r16
     344:	1f 93       	push	r17
     346:	cf 93       	push	r28
     348:	78 2f       	mov	r23, r24
     34a:	c9 2f       	mov	r28, r25
     34c:	5a 01       	movw	r10, r20
     34e:	49 01       	movw	r8, r18
     350:	40 91 7b 01 	lds	r20, 0x017B
     354:	8f ef       	ldi	r24, 0xFF	; 255
     356:	80 93 00 02 	sts	0x0200, r24
     35a:	ef e4       	ldi	r30, 0x4F	; 79
     35c:	f1 e0       	ldi	r31, 0x01	; 1
     35e:	80 81       	ld	r24, Z
     360:	82 ff       	sbrs	r24, 2
     362:	fd cf       	rjmp	.-6      	; 0x35e <radio_recv+0x2c>
     364:	0c c0       	rjmp	.+24     	; 0x37e <radio_recv+0x4c>
     366:	80 81       	ld	r24, Z
     368:	90 e0       	ldi	r25, 0x00	; 0
     36a:	8f 71       	andi	r24, 0x1F	; 31
     36c:	90 70       	andi	r25, 0x00	; 0
     36e:	28 17       	cp	r18, r24
     370:	39 07       	cpc	r19, r25
     372:	64 f4       	brge	.+24     	; 0x38c <radio_recv+0x5a>
     374:	80 81       	ld	r24, Z
     376:	8f 71       	andi	r24, 0x1F	; 31
     378:	80 93 00 02 	sts	0x0200, r24
     37c:	04 c0       	rjmp	.+8      	; 0x386 <radio_recv+0x54>
     37e:	af e4       	ldi	r26, 0x4F	; 79
     380:	b1 e0       	ldi	r27, 0x01	; 1
     382:	e6 e4       	ldi	r30, 0x46	; 70
     384:	f1 e0       	ldi	r31, 0x01	; 1
     386:	20 91 00 02 	lds	r18, 0x0200
     38a:	30 e0       	ldi	r19, 0x00	; 0
     38c:	8c 91       	ld	r24, X
     38e:	83 ff       	sbrs	r24, 3
     390:	ea cf       	rjmp	.-44     	; 0x366 <radio_recv+0x34>
     392:	84 2f       	mov	r24, r20
     394:	8b 50       	subi	r24, 0x0B	; 11
     396:	46 2f       	mov	r20, r22
     398:	86 17       	cp	r24, r22
     39a:	08 f4       	brcc	.+2      	; 0x39e <radio_recv+0x6c>
     39c:	48 2f       	mov	r20, r24
     39e:	30 91 85 01 	lds	r19, 0x0185
     3a2:	20 e0       	ldi	r18, 0x00	; 0
     3a4:	80 91 86 01 	lds	r24, 0x0186
     3a8:	90 e0       	ldi	r25, 0x00	; 0
     3aa:	82 2b       	or	r24, r18
     3ac:	93 2b       	or	r25, r19
     3ae:	f5 01       	movw	r30, r10
     3b0:	91 83       	std	Z+1, r25	; 0x01
     3b2:	80 83       	st	Z, r24
     3b4:	30 91 89 01 	lds	r19, 0x0189
     3b8:	20 e0       	ldi	r18, 0x00	; 0
     3ba:	80 91 8a 01 	lds	r24, 0x018A
     3be:	90 e0       	ldi	r25, 0x00	; 0
     3c0:	82 2b       	or	r24, r18
     3c2:	93 2b       	or	r25, r19
     3c4:	f4 01       	movw	r30, r8
     3c6:	91 83       	std	Z+1, r25	; 0x01
     3c8:	80 83       	st	Z, r24
     3ca:	44 23       	and	r20, r20
     3cc:	99 f0       	breq	.+38     	; 0x3f4 <radio_recv+0xc2>
     3ce:	a7 2f       	mov	r26, r23
     3d0:	bc 2f       	mov	r27, r28
     3d2:	24 2f       	mov	r18, r20
     3d4:	21 50       	subi	r18, 0x01	; 1
     3d6:	30 e0       	ldi	r19, 0x00	; 0
     3d8:	c9 01       	movw	r24, r18
     3da:	84 57       	subi	r24, 0x74	; 116
     3dc:	9e 4f       	sbci	r25, 0xFE	; 254
     3de:	eb e8       	ldi	r30, 0x8B	; 139
     3e0:	f1 e0       	ldi	r31, 0x01	; 1
     3e2:	51 91       	ld	r21, Z+
     3e4:	5d 93       	st	X+, r21
     3e6:	e8 17       	cp	r30, r24
     3e8:	f9 07       	cpc	r31, r25
     3ea:	d9 f7       	brne	.-10     	; 0x3e2 <radio_recv+0xb0>
     3ec:	f9 01       	movw	r30, r18
     3ee:	e4 57       	subi	r30, 0x74	; 116
     3f0:	fe 4f       	sbci	r31, 0xFE	; 254
     3f2:	02 c0       	rjmp	.+4      	; 0x3f8 <radio_recv+0xc6>
     3f4:	eb e8       	ldi	r30, 0x8B	; 139
     3f6:	f1 e0       	ldi	r31, 0x01	; 1
     3f8:	80 81       	ld	r24, Z
     3fa:	80 93 67 02 	sts	0x0267, r24
     3fe:	f6 01       	movw	r30, r12
     400:	80 83       	st	Z, r24
     402:	80 91 47 01 	lds	r24, 0x0147
     406:	80 93 68 02 	sts	0x0268, r24
     40a:	f7 01       	movw	r30, r14
     40c:	80 83       	st	Z, r24
     40e:	80 91 46 01 	lds	r24, 0x0146
     412:	88 1f       	adc	r24, r24
     414:	88 27       	eor	r24, r24
     416:	88 1f       	adc	r24, r24
     418:	f8 01       	movw	r30, r16
     41a:	80 83       	st	Z, r24
     41c:	e1 e4       	ldi	r30, 0x41	; 65
     41e:	f1 e0       	ldi	r31, 0x01	; 1
     420:	80 81       	ld	r24, Z
     422:	8f 71       	andi	r24, 0x1F	; 31
     424:	86 30       	cpi	r24, 0x06	; 6
     426:	e1 f7       	brne	.-8      	; 0x420 <radio_recv+0xee>
     428:	ec e4       	ldi	r30, 0x4C	; 76
     42a:	f1 e0       	ldi	r31, 0x01	; 1
     42c:	80 81       	ld	r24, Z
     42e:	8f 77       	andi	r24, 0x7F	; 127
     430:	80 83       	st	Z, r24
     432:	80 81       	ld	r24, Z
     434:	80 68       	ori	r24, 0x80	; 128
     436:	80 83       	st	Z, r24
     438:	8f ef       	ldi	r24, 0xFF	; 255
     43a:	80 93 4f 01 	sts	0x014F, r24
     43e:	80 91 41 01 	lds	r24, 0x0141
     442:	80 93 62 02 	sts	0x0262, r24
     446:	84 2f       	mov	r24, r20
     448:	82 50       	subi	r24, 0x02	; 2
     44a:	cf 91       	pop	r28
     44c:	1f 91       	pop	r17
     44e:	0f 91       	pop	r16
     450:	ff 90       	pop	r15
     452:	ef 90       	pop	r14
     454:	df 90       	pop	r13
     456:	cf 90       	pop	r12
     458:	bf 90       	pop	r11
     45a:	af 90       	pop	r10
     45c:	9f 90       	pop	r9
     45e:	8f 90       	pop	r8
     460:	08 95       	ret

00000462 <radio_set_power>:
     462:	e5 e4       	ldi	r30, 0x45	; 69
     464:	f1 e0       	ldi	r31, 0x01	; 1
     466:	90 81       	ld	r25, Z
     468:	8f 70       	andi	r24, 0x0F	; 15
     46a:	90 7f       	andi	r25, 0xF0	; 240
     46c:	98 2b       	or	r25, r24
     46e:	90 83       	st	Z, r25
     470:	08 95       	ret

00000472 <radio_rssi>:
     472:	80 91 46 01 	lds	r24, 0x0146
     476:	8f 71       	andi	r24, 0x1F	; 31
     478:	90 91 00 02 	lds	r25, 0x0200
     47c:	98 17       	cp	r25, r24
     47e:	10 f4       	brcc	.+4      	; 0x484 <radio_rssi+0x12>
     480:	80 93 00 02 	sts	0x0200, r24
     484:	08 95       	ret

00000486 <radio_max_rssi>:
     486:	80 91 00 02 	lds	r24, 0x0200
     48a:	10 92 00 02 	sts	0x0200, r1
     48e:	08 95       	ret

00000490 <radio_latest_energy>:
     490:	80 91 68 02 	lds	r24, 0x0268
     494:	08 95       	ret

00000496 <radio_latest_lqi>:
     496:	80 91 67 02 	lds	r24, 0x0267
     49a:	08 95       	ret

0000049c <radio_rx_all>:
     49c:	80 91 65 02 	lds	r24, 0x0265
     4a0:	08 95       	ret

000004a2 <radio_getid>:
     4a2:	80 91 63 02 	lds	r24, 0x0263
     4a6:	90 91 64 02 	lds	r25, 0x0264
     4aa:	08 95       	ret

000004ac <serial_init>:
     4ac:	4f 92       	push	r4
     4ae:	5f 92       	push	r5
     4b0:	6f 92       	push	r6
     4b2:	7f 92       	push	r7
     4b4:	8f 92       	push	r8
     4b6:	9f 92       	push	r9
     4b8:	af 92       	push	r10
     4ba:	bf 92       	push	r11
     4bc:	cf 92       	push	r12
     4be:	df 92       	push	r13
     4c0:	ef 92       	push	r14
     4c2:	ff 92       	push	r15
     4c4:	4b 01       	movw	r8, r22
     4c6:	5c 01       	movw	r10, r24
     4c8:	d9 d1       	rcall	.+946    	; 0x87c <hw_timer_cpuf>
     4ca:	2b 01       	movw	r4, r22
     4cc:	3c 01       	movw	r6, r24
     4ce:	68 94       	set
     4d0:	13 f8       	bld	r1, 3
     4d2:	76 94       	lsr	r7
     4d4:	67 94       	ror	r6
     4d6:	57 94       	ror	r5
     4d8:	47 94       	ror	r4
     4da:	16 94       	lsr	r1
     4dc:	d1 f7       	brne	.-12     	; 0x4d2 <serial_init+0x26>
     4de:	0f 2e       	mov	r0, r31
     4e0:	fa e0       	ldi	r31, 0x0A	; 10
     4e2:	cf 2e       	mov	r12, r31
     4e4:	f0 e0       	ldi	r31, 0x00	; 0
     4e6:	df 2e       	mov	r13, r31
     4e8:	f0 e0       	ldi	r31, 0x00	; 0
     4ea:	ef 2e       	mov	r14, r31
     4ec:	f0 e0       	ldi	r31, 0x00	; 0
     4ee:	ff 2e       	mov	r15, r31
     4f0:	f0 2d       	mov	r31, r0
     4f2:	c5 01       	movw	r24, r10
     4f4:	b4 01       	movw	r22, r8
     4f6:	a7 01       	movw	r20, r14
     4f8:	96 01       	movw	r18, r12
     4fa:	ac d3       	rcall	.+1880   	; 0xc54 <__udivmodsi4>
     4fc:	c3 01       	movw	r24, r6
     4fe:	b2 01       	movw	r22, r4
     500:	a9 d3       	rcall	.+1874   	; 0xc54 <__udivmodsi4>
     502:	ca 01       	movw	r24, r20
     504:	b9 01       	movw	r22, r18
     506:	6b 5f       	subi	r22, 0xFB	; 251
     508:	7f 4f       	sbci	r23, 0xFF	; 255
     50a:	8f 4f       	sbci	r24, 0xFF	; 255
     50c:	9f 4f       	sbci	r25, 0xFF	; 255
     50e:	a7 01       	movw	r20, r14
     510:	96 01       	movw	r18, r12
     512:	a0 d3       	rcall	.+1856   	; 0xc54 <__udivmodsi4>
     514:	da 01       	movw	r26, r20
     516:	c9 01       	movw	r24, r18
     518:	01 97       	sbiw	r24, 0x01	; 1
     51a:	a1 09       	sbc	r26, r1
     51c:	b1 09       	sbc	r27, r1
     51e:	e1 ec       	ldi	r30, 0xC1	; 193
     520:	f0 e0       	ldi	r31, 0x00	; 0
     522:	10 82       	st	Z, r1
     524:	10 92 c0 00 	sts	0x00C0, r1
     528:	26 e0       	ldi	r18, 0x06	; 6
     52a:	20 93 c2 00 	sts	0x00C2, r18
     52e:	29 2f       	mov	r18, r25
     530:	2f 70       	andi	r18, 0x0F	; 15
     532:	20 93 c5 00 	sts	0x00C5, r18
     536:	80 93 c4 00 	sts	0x00C4, r24
     53a:	88 e1       	ldi	r24, 0x18	; 24
     53c:	80 83       	st	Z, r24
     53e:	81 e0       	ldi	r24, 0x01	; 1
     540:	92 e0       	ldi	r25, 0x02	; 2
     542:	90 93 aa 03 	sts	0x03AA, r25
     546:	80 93 a9 03 	sts	0x03A9, r24
     54a:	e9 ea       	ldi	r30, 0xA9	; 169
     54c:	f3 e0       	ldi	r31, 0x03	; 3
     54e:	92 93       	st	-Z, r25
     550:	82 93       	st	-Z, r24
     552:	95 83       	std	Z+5, r25	; 0x05
     554:	84 83       	std	Z+4, r24	; 0x04
     556:	81 e0       	ldi	r24, 0x01	; 1
     558:	80 93 69 02 	sts	0x0269, r24
     55c:	ff 90       	pop	r15
     55e:	ef 90       	pop	r14
     560:	df 90       	pop	r13
     562:	cf 90       	pop	r12
     564:	bf 90       	pop	r11
     566:	af 90       	pop	r10
     568:	9f 90       	pop	r9
     56a:	8f 90       	pop	r8
     56c:	7f 90       	pop	r7
     56e:	6f 90       	pop	r6
     570:	5f 90       	pop	r5
     572:	4f 90       	pop	r4
     574:	08 95       	ret

00000576 <serial_is_init>:
     576:	80 91 69 02 	lds	r24, 0x0269
     57a:	08 95       	ret

0000057c <serial_put>:
     57c:	e0 ec       	ldi	r30, 0xC0	; 192
     57e:	f0 e0       	ldi	r31, 0x00	; 0
     580:	90 81       	ld	r25, Z
     582:	95 ff       	sbrs	r25, 5
     584:	fd cf       	rjmp	.-6      	; 0x580 <serial_put+0x4>
     586:	80 93 c6 00 	sts	0x00C6, r24
     58a:	08 95       	ret

0000058c <write>:
     58c:	cf 93       	push	r28
     58e:	c8 2f       	mov	r28, r24
     590:	f5 df       	rcall	.-22     	; 0x57c <serial_put>
     592:	8c 2f       	mov	r24, r28
     594:	90 e0       	ldi	r25, 0x00	; 0
     596:	cf 91       	pop	r28
     598:	08 95       	ret

0000059a <serial_puts>:
     59a:	cf 93       	push	r28
     59c:	df 93       	push	r29
     59e:	ec 01       	movw	r28, r24
     5a0:	88 81       	ld	r24, Y
     5a2:	88 23       	and	r24, r24
     5a4:	29 f0       	breq	.+10     	; 0x5b0 <serial_puts+0x16>
     5a6:	21 96       	adiw	r28, 0x01	; 1
     5a8:	e9 df       	rcall	.-46     	; 0x57c <serial_put>
     5aa:	89 91       	ld	r24, Y+
     5ac:	88 23       	and	r24, r24
     5ae:	e1 f7       	brne	.-8      	; 0x5a8 <serial_puts+0xe>
     5b0:	df 91       	pop	r29
     5b2:	cf 91       	pop	r28
     5b4:	08 95       	ret

000005b6 <serial_ready>:
     5b6:	80 91 c0 00 	lds	r24, 0x00C0
     5ba:	88 1f       	adc	r24, r24
     5bc:	88 27       	eor	r24, r24
     5be:	88 1f       	adc	r24, r24
     5c0:	08 95       	ret

000005c2 <serial_get>:
     5c2:	f9 df       	rcall	.-14     	; 0x5b6 <serial_ready>
     5c4:	88 23       	and	r24, r24
     5c6:	e9 f3       	breq	.-6      	; 0x5c2 <serial_get>
     5c8:	80 91 c6 00 	lds	r24, 0x00C6
     5cc:	08 95       	ret

000005ce <read>:
     5ce:	cf 93       	push	r28
     5d0:	f8 df       	rcall	.-16     	; 0x5c2 <serial_get>
     5d2:	c8 2f       	mov	r28, r24
     5d4:	d3 df       	rcall	.-90     	; 0x57c <serial_put>
     5d6:	8c 2f       	mov	r24, r28
     5d8:	90 e0       	ldi	r25, 0x00	; 0
     5da:	cf 91       	pop	r28
     5dc:	08 95       	ret

000005de <os_timer_add>:
     5de:	bc 01       	movw	r22, r24
     5e0:	40 91 6f 02 	lds	r20, 0x026F
     5e4:	50 91 70 02 	lds	r21, 0x0270
     5e8:	48 17       	cp	r20, r24
     5ea:	59 07       	cpc	r21, r25
     5ec:	41 f1       	breq	.+80     	; 0x63e <os_timer_add+0x60>
     5ee:	a1 e7       	ldi	r26, 0x71	; 113
     5f0:	b2 e0       	ldi	r27, 0x02	; 2
     5f2:	9d 01       	movw	r18, r26
     5f4:	2e 5e       	subi	r18, 0xEE	; 238
     5f6:	3f 4f       	sbci	r19, 0xFF	; 255
     5f8:	fd 01       	movw	r30, r26
     5fa:	81 91       	ld	r24, Z+
     5fc:	91 91       	ld	r25, Z+
     5fe:	86 17       	cp	r24, r22
     600:	97 07       	cpc	r25, r23
     602:	e9 f0       	breq	.+58     	; 0x63e <os_timer_add+0x60>
     604:	e2 17       	cp	r30, r18
     606:	f3 07       	cpc	r31, r19
     608:	c1 f7       	brne	.-16     	; 0x5fa <os_timer_add+0x1c>
     60a:	41 15       	cp	r20, r1
     60c:	51 05       	cpc	r21, r1
     60e:	41 f0       	breq	.+16     	; 0x620 <os_timer_add+0x42>
     610:	21 e0       	ldi	r18, 0x01	; 1
     612:	30 e0       	ldi	r19, 0x00	; 0
     614:	a9 01       	movw	r20, r18
     616:	8d 91       	ld	r24, X+
     618:	9d 91       	ld	r25, X+
     61a:	00 97       	sbiw	r24, 0x00	; 0
     61c:	59 f4       	brne	.+22     	; 0x634 <os_timer_add+0x56>
     61e:	02 c0       	rjmp	.+4      	; 0x624 <os_timer_add+0x46>
     620:	40 e0       	ldi	r20, 0x00	; 0
     622:	50 e0       	ldi	r21, 0x00	; 0
     624:	fa 01       	movw	r30, r20
     626:	ee 0f       	add	r30, r30
     628:	ff 1f       	adc	r31, r31
     62a:	e1 59       	subi	r30, 0x91	; 145
     62c:	fd 4f       	sbci	r31, 0xFD	; 253
     62e:	71 83       	std	Z+1, r23	; 0x01
     630:	60 83       	st	Z, r22
     632:	08 95       	ret
     634:	2f 5f       	subi	r18, 0xFF	; 255
     636:	3f 4f       	sbci	r19, 0xFF	; 255
     638:	2a 30       	cpi	r18, 0x0A	; 10
     63a:	31 05       	cpc	r19, r1
     63c:	59 f7       	brne	.-42     	; 0x614 <os_timer_add+0x36>
     63e:	08 95       	ret

00000640 <os_timer_tick>:
     640:	fc 01       	movw	r30, r24
     642:	00 97       	sbiw	r24, 0x00	; 0
     644:	29 f1       	breq	.+74     	; 0x690 <os_timer_tick+0x50>
     646:	80 81       	ld	r24, Z
     648:	88 23       	and	r24, r24
     64a:	11 f1       	breq	.+68     	; 0x690 <os_timer_tick+0x50>
     64c:	80 85       	ldd	r24, Z+8	; 0x08
     64e:	91 85       	ldd	r25, Z+9	; 0x09
     650:	00 97       	sbiw	r24, 0x00	; 0
     652:	f1 f0       	breq	.+60     	; 0x690 <os_timer_tick+0x50>
     654:	66 23       	and	r22, r22
     656:	39 f0       	breq	.+14     	; 0x666 <os_timer_tick+0x26>
     658:	22 81       	ldd	r18, Z+2	; 0x02
     65a:	21 30       	cpi	r18, 0x01	; 1
     65c:	c9 f4       	brne	.+50     	; 0x690 <os_timer_tick+0x50>
     65e:	01 97       	sbiw	r24, 0x01	; 1
     660:	91 87       	std	Z+9, r25	; 0x09
     662:	80 87       	std	Z+8, r24	; 0x08
     664:	06 c0       	rjmp	.+12     	; 0x672 <os_timer_tick+0x32>
     666:	22 81       	ldd	r18, Z+2	; 0x02
     668:	22 23       	and	r18, r18
     66a:	91 f4       	brne	.+36     	; 0x690 <os_timer_tick+0x50>
     66c:	01 97       	sbiw	r24, 0x01	; 1
     66e:	91 87       	std	Z+9, r25	; 0x09
     670:	80 87       	std	Z+8, r24	; 0x08
     672:	80 85       	ldd	r24, Z+8	; 0x08
     674:	91 85       	ldd	r25, Z+9	; 0x09
     676:	00 97       	sbiw	r24, 0x00	; 0
     678:	59 f4       	brne	.+22     	; 0x690 <os_timer_tick+0x50>
     67a:	81 e0       	ldi	r24, 0x01	; 1
     67c:	83 83       	std	Z+3, r24	; 0x03
     67e:	86 81       	ldd	r24, Z+6	; 0x06
     680:	97 81       	ldd	r25, Z+7	; 0x07
     682:	00 97       	sbiw	r24, 0x00	; 0
     684:	19 f0       	breq	.+6      	; 0x68c <os_timer_tick+0x4c>
     686:	81 e0       	ldi	r24, 0x01	; 1
     688:	81 83       	std	Z+1, r24	; 0x01
     68a:	01 c0       	rjmp	.+2      	; 0x68e <os_timer_tick+0x4e>
     68c:	11 82       	std	Z+1, r1	; 0x01
     68e:	10 82       	st	Z, r1
     690:	08 95       	ret

00000692 <timer_init>:
     692:	fc 01       	movw	r30, r24
     694:	10 82       	st	Z, r1
     696:	11 82       	std	Z+1, r1	; 0x01
     698:	62 83       	std	Z+2, r22	; 0x02
     69a:	13 82       	std	Z+3, r1	; 0x03
     69c:	55 83       	std	Z+5, r21	; 0x05
     69e:	44 83       	std	Z+4, r20	; 0x04
     6a0:	37 83       	std	Z+7, r19	; 0x07
     6a2:	26 83       	std	Z+6, r18	; 0x06
     6a4:	9c cf       	rjmp	.-200    	; 0x5de <os_timer_add>

000006a6 <timer_start>:
     6a6:	fc 01       	movw	r30, r24
     6a8:	80 81       	ld	r24, Z
     6aa:	88 23       	and	r24, r24
     6ac:	41 f4       	brne	.+16     	; 0x6be <timer_start+0x18>
     6ae:	81 e0       	ldi	r24, 0x01	; 1
     6b0:	80 83       	st	Z, r24
     6b2:	11 82       	std	Z+1, r1	; 0x01
     6b4:	13 82       	std	Z+3, r1	; 0x03
     6b6:	84 81       	ldd	r24, Z+4	; 0x04
     6b8:	95 81       	ldd	r25, Z+5	; 0x05
     6ba:	91 87       	std	Z+9, r25	; 0x09
     6bc:	80 87       	std	Z+8, r24	; 0x08
     6be:	cf 01       	movw	r24, r30
     6c0:	8e cf       	rjmp	.-228    	; 0x5de <os_timer_add>

000006c2 <timer_stop>:
     6c2:	fc 01       	movw	r30, r24
     6c4:	10 82       	st	Z, r1
     6c6:	11 82       	std	Z+1, r1	; 0x01
     6c8:	08 95       	ret

000006ca <main>:
     6ca:	cf 93       	push	r28
     6cc:	df 93       	push	r29
     6ce:	cd b7       	in	r28, 0x3d	; 61
     6d0:	de b7       	in	r29, 0x3e	; 62
     6d2:	27 97       	sbiw	r28, 0x07	; 7
     6d4:	0f b6       	in	r0, 0x3f	; 63
     6d6:	f8 94       	cli
     6d8:	de bf       	out	0x3e, r29	; 62
     6da:	0f be       	out	0x3f, r0	; 63
     6dc:	cd bf       	out	0x3d, r28	; 61
     6de:	0f e6       	ldi	r16, 0x6F	; 111
     6e0:	12 e0       	ldi	r17, 0x02	; 2
     6e2:	0f 2e       	mov	r0, r31
     6e4:	f4 e1       	ldi	r31, 0x14	; 20
     6e6:	af 2e       	mov	r10, r31
     6e8:	bb 24       	eor	r11, r11
     6ea:	f0 2d       	mov	r31, r0
     6ec:	a0 0e       	add	r10, r16
     6ee:	b1 1e       	adc	r11, r17
     6f0:	f8 01       	movw	r30, r16
     6f2:	11 92       	st	Z+, r1
     6f4:	11 92       	st	Z+, r1
     6f6:	ea 15       	cp	r30, r10
     6f8:	fb 05       	cpc	r31, r11
     6fa:	d9 f7       	brne	.-10     	; 0x6f2 <main+0x28>
     6fc:	c4 d0       	rcall	.+392    	; 0x886 <hw_timer_init>
     6fe:	97 d1       	rcall	.+814    	; 0xa2e <application_start>
     700:	44 24       	eor	r4, r4
     702:	55 24       	eor	r5, r5
     704:	33 24       	eor	r3, r3
     706:	70 2e       	mov	r7, r16
     708:	61 2e       	mov	r6, r17
     70a:	0f 2e       	mov	r0, r31
     70c:	ff e6       	ldi	r31, 0x6F	; 111
     70e:	8f 2e       	mov	r8, r31
     710:	f2 e0       	ldi	r31, 0x02	; 2
     712:	9f 2e       	mov	r9, r31
     714:	f0 2d       	mov	r31, r0
     716:	9d dd       	rcall	.-1222   	; 0x252 <radio_tx_done>
     718:	88 23       	and	r24, r24
     71a:	09 f0       	breq	.+2      	; 0x71e <main+0x54>
     71c:	4f d2       	rcall	.+1182   	; 0xbbc <application_radio_tx_done>
     71e:	03 de       	rcall	.-1018   	; 0x326 <radio_rxed>
     720:	88 23       	and	r24, r24
     722:	89 f1       	breq	.+98     	; 0x786 <main+0xbc>
     724:	83 e8       	ldi	r24, 0x83	; 131
     726:	92 e0       	ldi	r25, 0x02	; 2
     728:	60 e8       	ldi	r22, 0x80	; 128
     72a:	ae 01       	movw	r20, r28
     72c:	4a 5f       	subi	r20, 0xFA	; 250
     72e:	5f 4f       	sbci	r21, 0xFF	; 255
     730:	9e 01       	movw	r18, r28
     732:	2c 5f       	subi	r18, 0xFC	; 252
     734:	3f 4f       	sbci	r19, 0xFF	; 255
     736:	8e 01       	movw	r16, r28
     738:	0d 5f       	subi	r16, 0xFD	; 253
     73a:	1f 4f       	sbci	r17, 0xFF	; 255
     73c:	ee 24       	eor	r14, r14
     73e:	ff 24       	eor	r15, r15
     740:	68 94       	set
     742:	e1 f8       	bld	r14, 1
     744:	ec 0e       	add	r14, r28
     746:	fd 1e       	adc	r15, r29
     748:	6e 01       	movw	r12, r28
     74a:	08 94       	sec
     74c:	c1 1c       	adc	r12, r1
     74e:	d1 1c       	adc	r13, r1
     750:	f0 dd       	rcall	.-1056   	; 0x332 <radio_recv>
     752:	08 2f       	mov	r16, r24
     754:	8b 81       	ldd	r24, Y+3	; 0x03
     756:	88 23       	and	r24, r24
     758:	b1 f0       	breq	.+44     	; 0x786 <main+0xbc>
     75a:	a3 de       	rcall	.-698    	; 0x4a2 <radio_getid>
     75c:	2e 81       	ldd	r18, Y+6	; 0x06
     75e:	3f 81       	ldd	r19, Y+7	; 0x07
     760:	82 17       	cp	r24, r18
     762:	93 07       	cpc	r25, r19
     764:	39 f0       	breq	.+14     	; 0x774 <main+0xaa>
     766:	8f ef       	ldi	r24, 0xFF	; 255
     768:	2f 3f       	cpi	r18, 0xFF	; 255
     76a:	38 07       	cpc	r19, r24
     76c:	19 f0       	breq	.+6      	; 0x774 <main+0xaa>
     76e:	96 de       	rcall	.-724    	; 0x49c <radio_rx_all>
     770:	88 23       	and	r24, r24
     772:	49 f0       	breq	.+18     	; 0x786 <main+0xbc>
     774:	6c 81       	ldd	r22, Y+4	; 0x04
     776:	7d 81       	ldd	r23, Y+5	; 0x05
     778:	8e 81       	ldd	r24, Y+6	; 0x06
     77a:	9f 81       	ldd	r25, Y+7	; 0x07
     77c:	40 2f       	mov	r20, r16
     77e:	50 e0       	ldi	r21, 0x00	; 0
     780:	23 e8       	ldi	r18, 0x83	; 131
     782:	32 e0       	ldi	r19, 0x02	; 2
     784:	90 d1       	rcall	.+800    	; 0xaa6 <application_radio_rx_msg>
     786:	a5 d0       	rcall	.+330    	; 0x8d2 <hw_timer_now_us>
     788:	dc 01       	movw	r26, r24
     78a:	cb 01       	movw	r24, r22
     78c:	40 91 6a 02 	lds	r20, 0x026A
     790:	50 91 6b 02 	lds	r21, 0x026B
     794:	60 91 6c 02 	lds	r22, 0x026C
     798:	70 91 6d 02 	lds	r23, 0x026D
     79c:	48 17       	cp	r20, r24
     79e:	59 07       	cpc	r21, r25
     7a0:	6a 07       	cpc	r22, r26
     7a2:	7b 07       	cpc	r23, r27
     7a4:	78 f5       	brcc	.+94     	; 0x804 <main+0x13a>
     7a6:	95 d0       	rcall	.+298    	; 0x8d2 <hw_timer_now_us>
     7a8:	dc 01       	movw	r26, r24
     7aa:	cb 01       	movw	r24, r22
     7ac:	88 51       	subi	r24, 0x18	; 24
     7ae:	9c 4f       	sbci	r25, 0xFC	; 252
     7b0:	af 4f       	sbci	r26, 0xFF	; 255
     7b2:	bf 4f       	sbci	r27, 0xFF	; 255
     7b4:	80 93 6a 02 	sts	0x026A, r24
     7b8:	90 93 6b 02 	sts	0x026B, r25
     7bc:	a0 93 6c 02 	sts	0x026C, r26
     7c0:	b0 93 6d 02 	sts	0x026D, r27
     7c4:	07 2d       	mov	r16, r7
     7c6:	16 2d       	mov	r17, r6
     7c8:	d8 01       	movw	r26, r16
     7ca:	8d 91       	ld	r24, X+
     7cc:	9d 91       	ld	r25, X+
     7ce:	8d 01       	movw	r16, r26
     7d0:	61 e0       	ldi	r22, 0x01	; 1
     7d2:	36 df       	rcall	.-404    	; 0x640 <os_timer_tick>
     7d4:	0a 15       	cp	r16, r10
     7d6:	1b 05       	cpc	r17, r11
     7d8:	b9 f7       	brne	.-18     	; 0x7c8 <main+0xfe>
     7da:	08 94       	sec
     7dc:	41 1c       	adc	r4, r1
     7de:	51 1c       	adc	r5, r1
     7e0:	b8 ee       	ldi	r27, 0xE8	; 232
     7e2:	4b 16       	cp	r4, r27
     7e4:	b3 e0       	ldi	r27, 0x03	; 3
     7e6:	5b 06       	cpc	r5, r27
     7e8:	68 f0       	brcs	.+26     	; 0x804 <main+0x13a>
     7ea:	07 2d       	mov	r16, r7
     7ec:	16 2d       	mov	r17, r6
     7ee:	f8 01       	movw	r30, r16
     7f0:	81 91       	ld	r24, Z+
     7f2:	91 91       	ld	r25, Z+
     7f4:	8f 01       	movw	r16, r30
     7f6:	60 e0       	ldi	r22, 0x00	; 0
     7f8:	23 df       	rcall	.-442    	; 0x640 <os_timer_tick>
     7fa:	a0 16       	cp	r10, r16
     7fc:	b1 06       	cpc	r11, r17
     7fe:	b9 f7       	brne	.-18     	; 0x7ee <main+0x124>
     800:	44 24       	eor	r4, r4
     802:	55 24       	eor	r5, r5
     804:	a7 2d       	mov	r26, r7
     806:	b6 2d       	mov	r27, r6
     808:	00 e0       	ldi	r16, 0x00	; 0
     80a:	10 e0       	ldi	r17, 0x00	; 0
     80c:	ed 91       	ld	r30, X+
     80e:	fd 91       	ld	r31, X+
     810:	30 97       	sbiw	r30, 0x00	; 0
     812:	71 f1       	breq	.+92     	; 0x870 <main+0x1a6>
     814:	83 81       	ldd	r24, Z+3	; 0x03
     816:	88 23       	and	r24, r24
     818:	59 f1       	breq	.+86     	; 0x870 <main+0x1a6>
     81a:	cf 01       	movw	r24, r30
     81c:	25 d1       	rcall	.+586    	; 0xa68 <application_timer_tick>
     81e:	c8 01       	movw	r24, r16
     820:	88 0f       	add	r24, r24
     822:	99 1f       	adc	r25, r25
     824:	88 0d       	add	r24, r8
     826:	99 1d       	adc	r25, r9
     828:	dc 01       	movw	r26, r24
     82a:	ed 91       	ld	r30, X+
     82c:	fc 91       	ld	r31, X
     82e:	11 97       	sbiw	r26, 0x01	; 1
     830:	13 82       	std	Z+3, r1	; 0x03
     832:	81 81       	ldd	r24, Z+1	; 0x01
     834:	88 23       	and	r24, r24
     836:	41 f0       	breq	.+16     	; 0x848 <main+0x17e>
     838:	86 81       	ldd	r24, Z+6	; 0x06
     83a:	97 81       	ldd	r25, Z+7	; 0x07
     83c:	00 97       	sbiw	r24, 0x00	; 0
     83e:	21 f0       	breq	.+8      	; 0x848 <main+0x17e>
     840:	91 87       	std	Z+9, r25	; 0x09
     842:	80 87       	std	Z+8, r24	; 0x08
     844:	81 e0       	ldi	r24, 0x01	; 1
     846:	80 83       	st	Z, r24
     848:	11 82       	std	Z+1, r1	; 0x01
     84a:	8c dc       	rcall	.-1768   	; 0x164 <button_pressed>
     84c:	88 23       	and	r24, r24
     84e:	31 f0       	breq	.+12     	; 0x85c <main+0x192>
     850:	33 20       	and	r3, r3
     852:	21 f4       	brne	.+8      	; 0x85c <main+0x192>
     854:	ce d1       	rcall	.+924    	; 0xbf2 <application_button_pressed>
     856:	33 24       	eor	r3, r3
     858:	33 94       	inc	r3
     85a:	5d cf       	rjmp	.-326    	; 0x716 <main+0x4c>
     85c:	87 dc       	rcall	.-1778   	; 0x16c <button_released>
     85e:	88 23       	and	r24, r24
     860:	09 f4       	brne	.+2      	; 0x864 <main+0x19a>
     862:	59 cf       	rjmp	.-334    	; 0x716 <main+0x4c>
     864:	33 20       	and	r3, r3
     866:	09 f4       	brne	.+2      	; 0x86a <main+0x1a0>
     868:	56 cf       	rjmp	.-340    	; 0x716 <main+0x4c>
     86a:	e4 d1       	rcall	.+968    	; 0xc34 <application_button_released>
     86c:	33 24       	eor	r3, r3
     86e:	53 cf       	rjmp	.-346    	; 0x716 <main+0x4c>
     870:	0f 5f       	subi	r16, 0xFF	; 255
     872:	1f 4f       	sbci	r17, 0xFF	; 255
     874:	0a 30       	cpi	r16, 0x0A	; 10
     876:	11 05       	cpc	r17, r1
     878:	49 f6       	brne	.-110    	; 0x80c <main+0x142>
     87a:	e7 cf       	rjmp	.-50     	; 0x84a <main+0x180>

0000087c <hw_timer_cpuf>:
     87c:	60 e0       	ldi	r22, 0x00	; 0
     87e:	72 e1       	ldi	r23, 0x12	; 18
     880:	8a e7       	ldi	r24, 0x7A	; 122
     882:	90 e0       	ldi	r25, 0x00	; 0
     884:	08 95       	ret

00000886 <hw_timer_init>:
     886:	10 92 80 00 	sts	0x0080, r1
     88a:	81 e0       	ldi	r24, 0x01	; 1
     88c:	80 93 81 00 	sts	0x0081, r24
     890:	10 92 82 00 	sts	0x0082, r1
     894:	10 92 85 00 	sts	0x0085, r1
     898:	10 92 84 00 	sts	0x0084, r1
     89c:	10 92 6f 00 	sts	0x006F, r1
     8a0:	08 95       	ret

000008a2 <hw_timer_start>:
     8a2:	cf 93       	push	r28
     8a4:	df 93       	push	r29
     8a6:	ec 01       	movw	r28, r24
     8a8:	ee df       	rcall	.-36     	; 0x886 <hw_timer_init>
     8aa:	d0 93 85 00 	sts	0x0085, r29
     8ae:	c0 93 84 00 	sts	0x0084, r28
     8b2:	df 91       	pop	r29
     8b4:	cf 91       	pop	r28
     8b6:	08 95       	ret

000008b8 <hw_timer_overflow>:
     8b8:	81 e0       	ldi	r24, 0x01	; 1
     8ba:	b0 9b       	sbis	0x16, 0	; 22
     8bc:	80 e0       	ldi	r24, 0x00	; 0
     8be:	88 23       	and	r24, r24
     8c0:	11 f0       	breq	.+4      	; 0x8c6 <hw_timer_overflow+0xe>
     8c2:	91 e0       	ldi	r25, 0x01	; 1
     8c4:	96 bb       	out	0x16, r25	; 22
     8c6:	08 95       	ret

000008c8 <hw_timer_now>:
     8c8:	80 91 84 00 	lds	r24, 0x0084
     8cc:	90 91 85 00 	lds	r25, 0x0085
     8d0:	08 95       	ret

000008d2 <hw_timer_now_us>:
     8d2:	cf 92       	push	r12
     8d4:	df 92       	push	r13
     8d6:	ef 92       	push	r14
     8d8:	ff 92       	push	r15
     8da:	c0 90 84 00 	lds	r12, 0x0084
     8de:	d0 90 85 00 	lds	r13, 0x0085
     8e2:	d6 94       	lsr	r13
     8e4:	c7 94       	ror	r12
     8e6:	d6 94       	lsr	r13
     8e8:	c7 94       	ror	r12
     8ea:	d6 94       	lsr	r13
     8ec:	c7 94       	ror	r12
     8ee:	ee 24       	eor	r14, r14
     8f0:	ff 24       	eor	r15, r15
     8f2:	e2 df       	rcall	.-60     	; 0x8b8 <hw_timer_overflow>
     8f4:	88 23       	and	r24, r24
     8f6:	a1 f0       	breq	.+40     	; 0x920 <hw_timer_now_us+0x4e>
     8f8:	80 91 03 03 	lds	r24, 0x0303
     8fc:	90 91 04 03 	lds	r25, 0x0304
     900:	a0 91 05 03 	lds	r26, 0x0305
     904:	b0 91 06 03 	lds	r27, 0x0306
     908:	80 50       	subi	r24, 0x00	; 0
     90a:	90 4e       	sbci	r25, 0xE0	; 224
     90c:	af 4f       	sbci	r26, 0xFF	; 255
     90e:	bf 4f       	sbci	r27, 0xFF	; 255
     910:	80 93 03 03 	sts	0x0303, r24
     914:	90 93 04 03 	sts	0x0304, r25
     918:	a0 93 05 03 	sts	0x0305, r26
     91c:	b0 93 06 03 	sts	0x0306, r27
     920:	80 91 03 03 	lds	r24, 0x0303
     924:	90 91 04 03 	lds	r25, 0x0304
     928:	a0 91 05 03 	lds	r26, 0x0305
     92c:	b0 91 06 03 	lds	r27, 0x0306
     930:	c8 0e       	add	r12, r24
     932:	d9 1e       	adc	r13, r25
     934:	ea 1e       	adc	r14, r26
     936:	fb 1e       	adc	r15, r27
     938:	6c 2d       	mov	r22, r12
     93a:	7d 2d       	mov	r23, r13
     93c:	8e 2d       	mov	r24, r14
     93e:	9f 2d       	mov	r25, r15
     940:	ff 90       	pop	r15
     942:	ef 90       	pop	r14
     944:	df 90       	pop	r13
     946:	cf 90       	pop	r12
     948:	08 95       	ret

0000094a <hw_timer_wait_micro>:
     94a:	8f 92       	push	r8
     94c:	9f 92       	push	r9
     94e:	af 92       	push	r10
     950:	bf 92       	push	r11
     952:	cf 92       	push	r12
     954:	df 92       	push	r13
     956:	ef 92       	push	r14
     958:	ff 92       	push	r15
     95a:	4c 01       	movw	r8, r24
     95c:	aa 24       	eor	r10, r10
     95e:	bb 24       	eor	r11, r11
     960:	88 0c       	add	r8, r8
     962:	99 1c       	adc	r9, r9
     964:	aa 1c       	adc	r10, r10
     966:	bb 1c       	adc	r11, r11
     968:	88 0c       	add	r8, r8
     96a:	99 1c       	adc	r9, r9
     96c:	aa 1c       	adc	r10, r10
     96e:	bb 1c       	adc	r11, r11
     970:	88 0c       	add	r8, r8
     972:	99 1c       	adc	r9, r9
     974:	aa 1c       	adc	r10, r10
     976:	bb 1c       	adc	r11, r11
     978:	80 e0       	ldi	r24, 0x00	; 0
     97a:	88 16       	cp	r8, r24
     97c:	80 e0       	ldi	r24, 0x00	; 0
     97e:	98 06       	cpc	r9, r24
     980:	81 e0       	ldi	r24, 0x01	; 1
     982:	a8 06       	cpc	r10, r24
     984:	80 e0       	ldi	r24, 0x00	; 0
     986:	b8 06       	cpc	r11, r24
     988:	78 f1       	brcs	.+94     	; 0x9e8 <hw_timer_wait_micro+0x9e>
     98a:	75 01       	movw	r14, r10
     98c:	64 01       	movw	r12, r8
     98e:	80 e0       	ldi	r24, 0x00	; 0
     990:	90 e0       	ldi	r25, 0x00	; 0
     992:	87 df       	rcall	.-242    	; 0x8a2 <hw_timer_start>
     994:	80 e0       	ldi	r24, 0x00	; 0
     996:	90 e0       	ldi	r25, 0x00	; 0
     998:	af ef       	ldi	r26, 0xFF	; 255
     99a:	bf ef       	ldi	r27, 0xFF	; 255
     99c:	c8 0e       	add	r12, r24
     99e:	d9 1e       	adc	r13, r25
     9a0:	ea 1e       	adc	r14, r26
     9a2:	fb 1e       	adc	r15, r27
     9a4:	89 df       	rcall	.-238    	; 0x8b8 <hw_timer_overflow>
     9a6:	88 23       	and	r24, r24
     9a8:	e9 f3       	breq	.-6      	; 0x9a4 <hw_timer_wait_micro+0x5a>
     9aa:	90 e0       	ldi	r25, 0x00	; 0
     9ac:	c9 16       	cp	r12, r25
     9ae:	90 e0       	ldi	r25, 0x00	; 0
     9b0:	d9 06       	cpc	r13, r25
     9b2:	91 e0       	ldi	r25, 0x01	; 1
     9b4:	e9 06       	cpc	r14, r25
     9b6:	90 e0       	ldi	r25, 0x00	; 0
     9b8:	f9 06       	cpc	r15, r25
     9ba:	48 f7       	brcc	.-46     	; 0x98e <hw_timer_wait_micro+0x44>
     9bc:	80 e0       	ldi	r24, 0x00	; 0
     9be:	90 e0       	ldi	r25, 0x00	; 0
     9c0:	af ef       	ldi	r26, 0xFF	; 255
     9c2:	bf ef       	ldi	r27, 0xFF	; 255
     9c4:	88 0e       	add	r8, r24
     9c6:	99 1e       	adc	r9, r25
     9c8:	aa 1e       	adc	r10, r26
     9ca:	bb 1e       	adc	r11, r27
     9cc:	b5 01       	movw	r22, r10
     9ce:	88 27       	eor	r24, r24
     9d0:	99 27       	eor	r25, r25
     9d2:	20 e0       	ldi	r18, 0x00	; 0
     9d4:	30 e0       	ldi	r19, 0x00	; 0
     9d6:	4f ef       	ldi	r20, 0xFF	; 255
     9d8:	5f ef       	ldi	r21, 0xFF	; 255
     9da:	2d d1       	rcall	.+602    	; 0xc36 <__mulsi3>
     9dc:	dc 01       	movw	r26, r24
     9de:	cb 01       	movw	r24, r22
     9e0:	88 0e       	add	r8, r24
     9e2:	99 1e       	adc	r9, r25
     9e4:	aa 1e       	adc	r10, r26
     9e6:	bb 1e       	adc	r11, r27
     9e8:	c4 01       	movw	r24, r8
     9ea:	80 95       	com	r24
     9ec:	90 95       	com	r25
     9ee:	59 df       	rcall	.-334    	; 0x8a2 <hw_timer_start>
     9f0:	63 df       	rcall	.-314    	; 0x8b8 <hw_timer_overflow>
     9f2:	88 23       	and	r24, r24
     9f4:	e9 f3       	breq	.-6      	; 0x9f0 <hw_timer_wait_micro+0xa6>
     9f6:	ff 90       	pop	r15
     9f8:	ef 90       	pop	r14
     9fa:	df 90       	pop	r13
     9fc:	cf 90       	pop	r12
     9fe:	bf 90       	pop	r11
     a00:	af 90       	pop	r10
     a02:	9f 90       	pop	r9
     a04:	8f 90       	pop	r8
     a06:	08 95       	ret

00000a08 <hw_timer_wait_milli>:
     a08:	cf 93       	push	r28
     a0a:	df 93       	push	r29
     a0c:	ec 01       	movw	r28, r24
     a0e:	82 34       	cpi	r24, 0x42	; 66
     a10:	91 05       	cpc	r25, r1
     a12:	40 f0       	brcs	.+16     	; 0xa24 <hw_timer_wait_milli+0x1c>
     a14:	88 ee       	ldi	r24, 0xE8	; 232
     a16:	9d ef       	ldi	r25, 0xFD	; 253
     a18:	98 df       	rcall	.-208    	; 0x94a <hw_timer_wait_micro>
     a1a:	c1 54       	subi	r28, 0x41	; 65
     a1c:	d0 40       	sbci	r29, 0x00	; 0
     a1e:	c2 34       	cpi	r28, 0x42	; 66
     a20:	d1 05       	cpc	r29, r1
     a22:	c0 f7       	brcc	.-16     	; 0xa14 <hw_timer_wait_milli+0xc>
     a24:	ce 01       	movw	r24, r28
     a26:	91 df       	rcall	.-222    	; 0x94a <hw_timer_wait_micro>
     a28:	df 91       	pop	r29
     a2a:	cf 91       	pop	r28
     a2c:	08 95       	ret

00000a2e <application_start>:
     a2e:	a2 db       	rcall	.-2236   	; 0x174 <leds_init>
     a30:	96 db       	rcall	.-2260   	; 0x15e <button_init>
     a32:	60 e0       	ldi	r22, 0x00	; 0
     a34:	81 e0       	ldi	r24, 0x01	; 1
     a36:	90 e0       	ldi	r25, 0x00	; 0
     a38:	bc db       	rcall	.-2184   	; 0x1b2 <radio_init>
     a3a:	81 e0       	ldi	r24, 0x01	; 1
     a3c:	12 dd       	rcall	.-1500   	; 0x462 <radio_set_power>
     a3e:	f7 db       	rcall	.-2066   	; 0x22e <radio_start>
	leds_init();
	button_init();
	radio_init(NODE_ID, false);
	radio_set_power(1);
	radio_start();
	serial_init(9600);
     a40:	60 e8       	ldi	r22, 0x80	; 128
     a42:	75 e2       	ldi	r23, 0x25	; 37
     a44:	80 e0       	ldi	r24, 0x00	; 0
     a46:	90 e0       	ldi	r25, 0x00	; 0
     a48:	31 dd       	rcall	.-1438   	; 0x4ac <serial_init>
	printf("test\r\n");
     a4a:	81 e1       	ldi	r24, 0x11	; 17
     a4c:	92 e0       	ldi	r25, 0x02	; 2
     a4e:	86 d1       	rcall	.+780    	; 0xd5c <puts>
	
	timer_init(&timer1, TIMER_MILLISECONDS, 1000, 100);
     a50:	24 e6       	ldi	r18, 0x64	; 100
     a52:	30 e0       	ldi	r19, 0x00	; 0
     a54:	48 ee       	ldi	r20, 0xE8	; 232
     a56:	53 e0       	ldi	r21, 0x03	; 3
     a58:	61 e0       	ldi	r22, 0x01	; 1
     a5a:	89 e0       	ldi	r24, 0x09	; 9
     a5c:	93 e0       	ldi	r25, 0x03	; 3
     a5e:	19 de       	rcall	.-974    	; 0x692 <timer_init>
	timer_start(&timer1);
     a60:	89 e0       	ldi	r24, 0x09	; 9
     a62:	93 e0       	ldi	r25, 0x03	; 3
     a64:	20 ce       	rjmp	.-960    	; 0x6a6 <timer_start>
     a66:	08 95       	ret

00000a68 <application_timer_tick>:
//
// Timer tick handler
//
void application_timer_tick(timer *t)
{
	if(canSend){
     a68:	80 91 07 03 	lds	r24, 0x0307
     a6c:	88 23       	and	r24, r24
     a6e:	d1 f0       	breq	.+52     	; 0xaa4 <application_timer_tick+0x3c>
		if(tx_buffer_inuse == false)
     a70:	80 91 08 03 	lds	r24, 0x0308
     a74:	81 11       	cpse	r24, r1
     a76:	16 c0       	rjmp	.+44     	; 0xaa4 <application_timer_tick+0x3c>
		{
			tx_buffer_inuse = true;
     a78:	81 e0       	ldi	r24, 0x01	; 1
     a7a:	80 93 08 03 	sts	0x0308, r24
			canSend = false;
     a7e:	10 92 07 03 	sts	0x0307, r1
			
			memcpy(&tx_buffer, &newPkt, sizeof(Packet));
     a82:	84 e1       	ldi	r24, 0x14	; 20
     a84:	e3 e9       	ldi	r30, 0x93	; 147
     a86:	f3 e0       	ldi	r31, 0x03	; 3
     a88:	a3 e1       	ldi	r26, 0x13	; 19
     a8a:	b3 e0       	ldi	r27, 0x03	; 3
     a8c:	01 90       	ld	r0, Z+
     a8e:	0d 92       	st	X+, r0
     a90:	8a 95       	dec	r24
     a92:	e1 f7       	brne	.-8      	; 0xa8c <application_timer_tick+0x24>
			
			radio_send(tx_buffer, sizeof(Packet), newPkt.dst);
     a94:	40 91 93 03 	lds	r20, 0x0393
     a98:	50 91 94 03 	lds	r21, 0x0394
     a9c:	64 e1       	ldi	r22, 0x14	; 20
     a9e:	83 e1       	ldi	r24, 0x13	; 19
     aa0:	93 e0       	ldi	r25, 0x03	; 3
     aa2:	dc cb       	rjmp	.-2120   	; 0x25c <radio_send>
     aa4:	08 95       	ret

00000aa6 <application_radio_rx_msg>:
//
// This function is called whenever a radio message is received
// You must copy any data you need out of the packet - as 'msgdata' will be overwritten by the next message
//
void application_radio_rx_msg(unsigned short dst, unsigned short src, int len, unsigned char *msgdata)
{
     aa6:	8f 92       	push	r8
     aa8:	9f 92       	push	r9
     aaa:	af 92       	push	r10
     aac:	bf 92       	push	r11
     aae:	cf 92       	push	r12
     ab0:	df 92       	push	r13
     ab2:	ef 92       	push	r14
     ab4:	ff 92       	push	r15
     ab6:	0f 93       	push	r16
     ab8:	1f 93       	push	r17
     aba:	cf 93       	push	r28
     abc:	df 93       	push	r29
     abe:	cd b7       	in	r28, 0x3d	; 61
     ac0:	de b7       	in	r29, 0x3e	; 62
     ac2:	61 97       	sbiw	r28, 0x11	; 17
     ac4:	0f b6       	in	r0, 0x3f	; 63
     ac6:	f8 94       	cli
     ac8:	de bf       	out	0x3e, r29	; 62
     aca:	0f be       	out	0x3f, r0	; 63
     acc:	cd bf       	out	0x3d, r28	; 61
     ace:	6b 01       	movw	r12, r22
     ad0:	5a 01       	movw	r10, r20
     ad2:	49 01       	movw	r8, r18
	printf("received a message\r\n");
     ad4:	87 e1       	ldi	r24, 0x17	; 23
     ad6:	92 e0       	ldi	r25, 0x02	; 2
     ad8:	41 d1       	rcall	.+642    	; 0xd5c <puts>
	char string[17];
	for(int i = 4; i<len; i++)
     ada:	85 e0       	ldi	r24, 0x05	; 5
     adc:	a8 16       	cp	r10, r24
     ade:	b1 04       	cpc	r11, r1
     ae0:	b4 f0       	brlt	.+44     	; 0xb0e <application_radio_rx_msg+0x68>
     ae2:	84 01       	movw	r16, r8
     ae4:	0c 5f       	subi	r16, 0xFC	; 252
     ae6:	1f 4f       	sbci	r17, 0xFF	; 255
     ae8:	fe 01       	movw	r30, r28
     aea:	31 96       	adiw	r30, 0x01	; 1
     aec:	7f 01       	movw	r14, r30
     aee:	8a 0c       	add	r8, r10
     af0:	9b 1c       	adc	r9, r11
     af2:	58 01       	movw	r10, r16
	{
		printf("%c", msgdata[i]);
     af4:	f8 01       	movw	r30, r16
     af6:	81 91       	ld	r24, Z+
     af8:	8f 01       	movw	r16, r30
     afa:	90 e0       	ldi	r25, 0x00	; 0
     afc:	2a d1       	rcall	.+596    	; 0xd52 <putchar>
		string[i-4] = msgdata[i];
     afe:	f5 01       	movw	r30, r10
     b00:	80 81       	ld	r24, Z
     b02:	f7 01       	movw	r30, r14
     b04:	81 93       	st	Z+, r24
     b06:	7f 01       	movw	r14, r30
//
void application_radio_rx_msg(unsigned short dst, unsigned short src, int len, unsigned char *msgdata)
{
	printf("received a message\r\n");
	char string[17];
	for(int i = 4; i<len; i++)
     b08:	08 15       	cp	r16, r8
     b0a:	19 05       	cpc	r17, r9
     b0c:	91 f7       	brne	.-28     	; 0xaf2 <application_radio_rx_msg+0x4c>
	{
		printf("%c", msgdata[i]);
		string[i-4] = msgdata[i];
	}
	string[16] = '\0';
     b0e:	19 8a       	std	Y+17, r1	; 0x11
	//put string into plaintext
	//sprintf(plaintext, string);
	//decrypt plaintext
	//decryptMeth();
	
	if(strcmp(string, "NACKNACKNACKNACK") == 0){ //something more complex than this - should be encrypted too?
     b10:	6b e2       	ldi	r22, 0x2B	; 43
     b12:	72 e0       	ldi	r23, 0x02	; 2
     b14:	ce 01       	movw	r24, r28
     b16:	01 96       	adiw	r24, 0x01	; 1
     b18:	fe d0       	rcall	.+508    	; 0xd16 <strcmp>
     b1a:	89 2b       	or	r24, r25
     b1c:	39 f4       	brne	.+14     	; 0xb2c <application_radio_rx_msg+0x86>
		//Uh oh.
		leds_off(LED_GREEN);
     b1e:	81 e0       	ldi	r24, 0x01	; 1
     b20:	3c db       	rcall	.-2440   	; 0x19a <leds_off>
		leds_off(LED_ORANGE);
     b22:	82 e0       	ldi	r24, 0x02	; 2
     b24:	3a db       	rcall	.-2444   	; 0x19a <leds_off>
		leds_on(LED_RED);
     b26:	83 e0       	ldi	r24, 0x03	; 3
     b28:	2c db       	rcall	.-2472   	; 0x182 <leds_on>
     b2a:	35 c0       	rjmp	.+106    	; 0xb96 <application_radio_rx_msg+0xf0>
	}
	else if(strcmp(string, "ACKACKacACKACKac") == 0){ //something more complex than this.
     b2c:	6c e3       	ldi	r22, 0x3C	; 60
     b2e:	72 e0       	ldi	r23, 0x02	; 2
     b30:	ce 01       	movw	r24, r28
     b32:	01 96       	adiw	r24, 0x01	; 1
     b34:	f0 d0       	rcall	.+480    	; 0xd16 <strcmp>
     b36:	89 2b       	or	r24, r25
     b38:	39 f4       	brne	.+14     	; 0xb48 <application_radio_rx_msg+0xa2>
		//Gate has opened.
		leds_off(LED_RED);
     b3a:	83 e0       	ldi	r24, 0x03	; 3
     b3c:	2e db       	rcall	.-2468   	; 0x19a <leds_off>
		leds_off(LED_ORANGE);
     b3e:	82 e0       	ldi	r24, 0x02	; 2
     b40:	2c db       	rcall	.-2472   	; 0x19a <leds_off>
		leds_on(LED_GREEN);
     b42:	81 e0       	ldi	r24, 0x01	; 1
     b44:	1e db       	rcall	.-2500   	; 0x182 <leds_on>
     b46:	27 c0       	rjmp	.+78     	; 0xb96 <application_radio_rx_msg+0xf0>
	}
	else{
		//for the purposes of this demo, the opener won't give a response. The attacker will steal the number and give a response instead.
		long temp1 = atol(string); //should be atolu?
     b48:	ce 01       	movw	r24, r28
     b4a:	01 96       	adiw	r24, 0x01	; 1
     b4c:	be d0       	rcall	.+380    	; 0xcca <atol>
		temp1++;

		newPkt.dst = src;
     b4e:	d0 92 94 03 	sts	0x0394, r13
     b52:	c0 92 93 03 	sts	0x0393, r12
		newPkt.src = NODE_ID;
     b56:	21 e0       	ldi	r18, 0x01	; 1
     b58:	30 e0       	ldi	r19, 0x00	; 0
     b5a:	30 93 96 03 	sts	0x0396, r19
     b5e:	20 93 95 03 	sts	0x0395, r18
		leds_on(LED_GREEN);
	}
	else{
		//for the purposes of this demo, the opener won't give a response. The attacker will steal the number and give a response instead.
		long temp1 = atol(string); //should be atolu?
		temp1++;
     b62:	dc 01       	movw	r26, r24
     b64:	cb 01       	movw	r24, r22
     b66:	01 96       	adiw	r24, 0x01	; 1
     b68:	a1 1d       	adc	r26, r1
     b6a:	b1 1d       	adc	r27, r1

		newPkt.dst = src;
		newPkt.src = NODE_ID;
		sprintf(newPkt.dt, "%lu", temp1);
     b6c:	bf 93       	push	r27
     b6e:	af 93       	push	r26
     b70:	9f 93       	push	r25
     b72:	8f 93       	push	r24
     b74:	8d e4       	ldi	r24, 0x4D	; 77
     b76:	92 e0       	ldi	r25, 0x02	; 2
     b78:	9f 93       	push	r25
     b7a:	8f 93       	push	r24
     b7c:	87 e9       	ldi	r24, 0x97	; 151
     b7e:	93 e0       	ldi	r25, 0x03	; 3
     b80:	9f 93       	push	r25
     b82:	8f 93       	push	r24
     b84:	18 d1       	rcall	.+560    	; 0xdb6 <sprintf>
		canSend = true;
     b86:	81 e0       	ldi	r24, 0x01	; 1
     b88:	80 93 07 03 	sts	0x0307, r24
     b8c:	0f b6       	in	r0, 0x3f	; 63
     b8e:	f8 94       	cli
     b90:	de bf       	out	0x3e, r29	; 62
     b92:	0f be       	out	0x3f, r0	; 63
     b94:	cd bf       	out	0x3d, r28	; 61
	}
}
     b96:	61 96       	adiw	r28, 0x11	; 17
     b98:	0f b6       	in	r0, 0x3f	; 63
     b9a:	f8 94       	cli
     b9c:	de bf       	out	0x3e, r29	; 62
     b9e:	0f be       	out	0x3f, r0	; 63
     ba0:	cd bf       	out	0x3d, r28	; 61
     ba2:	df 91       	pop	r29
     ba4:	cf 91       	pop	r28
     ba6:	1f 91       	pop	r17
     ba8:	0f 91       	pop	r16
     baa:	ff 90       	pop	r15
     bac:	ef 90       	pop	r14
     bae:	df 90       	pop	r13
     bb0:	cf 90       	pop	r12
     bb2:	bf 90       	pop	r11
     bb4:	af 90       	pop	r10
     bb6:	9f 90       	pop	r9
     bb8:	8f 90       	pop	r8
     bba:	08 95       	ret

00000bbc <application_radio_tx_done>:
// This function is called whenever a radio message has been transmitted
// You need to free up the transmit buffer here
//
void application_radio_tx_done()
{
	tx_buffer_inuse = false;
     bbc:	10 92 08 03 	sts	0x0308, r1
     bc0:	e3 e1       	ldi	r30, 0x13	; 19
     bc2:	f3 e0       	ldi	r31, 0x03	; 3
     bc4:	83 e9       	ldi	r24, 0x93	; 147
     bc6:	93 e0       	ldi	r25, 0x03	; 3
	
	//empty buffers after data has been sent
	for(int j=0; j<RADIO_MAX_LEN; j++)
	{
		tx_buffer[j] = 0x00;
     bc8:	11 92       	st	Z+, r1
void application_radio_tx_done()
{
	tx_buffer_inuse = false;
	
	//empty buffers after data has been sent
	for(int j=0; j<RADIO_MAX_LEN; j++)
     bca:	e8 17       	cp	r30, r24
     bcc:	f9 07       	cpc	r31, r25
     bce:	e1 f7       	brne	.-8      	; 0xbc8 <application_radio_tx_done+0xc>
	{
		tx_buffer[j] = 0x00;
	}
	newPkt.dst = 0x00;
     bd0:	10 92 94 03 	sts	0x0394, r1
     bd4:	10 92 93 03 	sts	0x0393, r1
	newPkt.src = 0x00;
     bd8:	10 92 96 03 	sts	0x0396, r1
     bdc:	10 92 95 03 	sts	0x0395, r1
     be0:	e7 e9       	ldi	r30, 0x97	; 151
     be2:	f3 e0       	ldi	r31, 0x03	; 3
     be4:	87 ea       	ldi	r24, 0xA7	; 167
     be6:	93 e0       	ldi	r25, 0x03	; 3
	for(int i=0;i<sizeof(newPkt.dt);i++){
		newPkt.dt[i] = 0;
     be8:	11 92       	st	Z+, r1
	{
		tx_buffer[j] = 0x00;
	}
	newPkt.dst = 0x00;
	newPkt.src = 0x00;
	for(int i=0;i<sizeof(newPkt.dt);i++){
     bea:	e8 17       	cp	r30, r24
     bec:	f9 07       	cpc	r31, r25
     bee:	e1 f7       	brne	.-8      	; 0xbe8 <application_radio_tx_done+0x2c>
		newPkt.dt[i] = 0;
	}
}
     bf0:	08 95       	ret

00000bf2 <application_button_pressed>:

void application_button_pressed()
{
	newPkt.dst = dest;
     bf2:	80 91 0f 02 	lds	r24, 0x020F
     bf6:	90 91 10 02 	lds	r25, 0x0210
     bfa:	90 93 94 03 	sts	0x0394, r25
     bfe:	80 93 93 03 	sts	0x0393, r24
	newPkt.src = NODE_ID;
     c02:	81 e0       	ldi	r24, 0x01	; 1
     c04:	90 e0       	ldi	r25, 0x00	; 0
     c06:	90 93 96 03 	sts	0x0396, r25
     c0a:	80 93 95 03 	sts	0x0395, r24
	sprintf(newPkt.dt, "OPENOPENOPENOPEN");
     c0e:	81 e1       	ldi	r24, 0x11	; 17
     c10:	e1 e5       	ldi	r30, 0x51	; 81
     c12:	f2 e0       	ldi	r31, 0x02	; 2
     c14:	a7 e9       	ldi	r26, 0x97	; 151
     c16:	b3 e0       	ldi	r27, 0x03	; 3
     c18:	01 90       	ld	r0, Z+
     c1a:	0d 92       	st	X+, r0
     c1c:	8a 95       	dec	r24
     c1e:	e1 f7       	brne	.-8      	; 0xc18 <application_button_pressed+0x26>
	canSend = true;
     c20:	81 e0       	ldi	r24, 0x01	; 1
     c22:	80 93 07 03 	sts	0x0307, r24
	
	leds_off(LED_RED);
     c26:	83 e0       	ldi	r24, 0x03	; 3
     c28:	b8 da       	rcall	.-2704   	; 0x19a <leds_off>
	leds_on(LED_ORANGE);
     c2a:	82 e0       	ldi	r24, 0x02	; 2
     c2c:	aa da       	rcall	.-2732   	; 0x182 <leds_on>
	leds_off(LED_GREEN);
     c2e:	81 e0       	ldi	r24, 0x01	; 1
     c30:	b4 ca       	rjmp	.-2712   	; 0x19a <leds_off>
     c32:	08 95       	ret

00000c34 <application_button_released>:
}

void application_button_released()
{
     c34:	08 95       	ret

00000c36 <__mulsi3>:
     c36:	db 01       	movw	r26, r22
     c38:	8f 93       	push	r24
     c3a:	9f 93       	push	r25
     c3c:	2d d0       	rcall	.+90     	; 0xc98 <__muluhisi3>
     c3e:	bf 91       	pop	r27
     c40:	af 91       	pop	r26
     c42:	a2 9f       	mul	r26, r18
     c44:	80 0d       	add	r24, r0
     c46:	91 1d       	adc	r25, r1
     c48:	a3 9f       	mul	r26, r19
     c4a:	90 0d       	add	r25, r0
     c4c:	b2 9f       	mul	r27, r18
     c4e:	90 0d       	add	r25, r0
     c50:	11 24       	eor	r1, r1
     c52:	08 95       	ret

00000c54 <__udivmodsi4>:
     c54:	a1 e2       	ldi	r26, 0x21	; 33
     c56:	1a 2e       	mov	r1, r26
     c58:	aa 1b       	sub	r26, r26
     c5a:	bb 1b       	sub	r27, r27
     c5c:	fd 01       	movw	r30, r26
     c5e:	0d c0       	rjmp	.+26     	; 0xc7a <__udivmodsi4_ep>

00000c60 <__udivmodsi4_loop>:
     c60:	aa 1f       	adc	r26, r26
     c62:	bb 1f       	adc	r27, r27
     c64:	ee 1f       	adc	r30, r30
     c66:	ff 1f       	adc	r31, r31
     c68:	a2 17       	cp	r26, r18
     c6a:	b3 07       	cpc	r27, r19
     c6c:	e4 07       	cpc	r30, r20
     c6e:	f5 07       	cpc	r31, r21
     c70:	20 f0       	brcs	.+8      	; 0xc7a <__udivmodsi4_ep>
     c72:	a2 1b       	sub	r26, r18
     c74:	b3 0b       	sbc	r27, r19
     c76:	e4 0b       	sbc	r30, r20
     c78:	f5 0b       	sbc	r31, r21

00000c7a <__udivmodsi4_ep>:
     c7a:	66 1f       	adc	r22, r22
     c7c:	77 1f       	adc	r23, r23
     c7e:	88 1f       	adc	r24, r24
     c80:	99 1f       	adc	r25, r25
     c82:	1a 94       	dec	r1
     c84:	69 f7       	brne	.-38     	; 0xc60 <__udivmodsi4_loop>
     c86:	60 95       	com	r22
     c88:	70 95       	com	r23
     c8a:	80 95       	com	r24
     c8c:	90 95       	com	r25
     c8e:	9b 01       	movw	r18, r22
     c90:	ac 01       	movw	r20, r24
     c92:	bd 01       	movw	r22, r26
     c94:	cf 01       	movw	r24, r30
     c96:	08 95       	ret

00000c98 <__muluhisi3>:
     c98:	09 d0       	rcall	.+18     	; 0xcac <__umulhisi3>
     c9a:	a5 9f       	mul	r26, r21
     c9c:	90 0d       	add	r25, r0
     c9e:	b4 9f       	mul	r27, r20
     ca0:	90 0d       	add	r25, r0
     ca2:	a4 9f       	mul	r26, r20
     ca4:	80 0d       	add	r24, r0
     ca6:	91 1d       	adc	r25, r1
     ca8:	11 24       	eor	r1, r1
     caa:	08 95       	ret

00000cac <__umulhisi3>:
     cac:	a2 9f       	mul	r26, r18
     cae:	b0 01       	movw	r22, r0
     cb0:	b3 9f       	mul	r27, r19
     cb2:	c0 01       	movw	r24, r0
     cb4:	a3 9f       	mul	r26, r19
     cb6:	70 0d       	add	r23, r0
     cb8:	81 1d       	adc	r24, r1
     cba:	11 24       	eor	r1, r1
     cbc:	91 1d       	adc	r25, r1
     cbe:	b2 9f       	mul	r27, r18
     cc0:	70 0d       	add	r23, r0
     cc2:	81 1d       	adc	r24, r1
     cc4:	11 24       	eor	r1, r1
     cc6:	91 1d       	adc	r25, r1
     cc8:	08 95       	ret

00000cca <atol>:
     cca:	1f 93       	push	r17
     ccc:	fc 01       	movw	r30, r24
     cce:	99 27       	eor	r25, r25
     cd0:	88 27       	eor	r24, r24
     cd2:	bc 01       	movw	r22, r24
     cd4:	e8 94       	clt
     cd6:	11 91       	ld	r17, Z+
     cd8:	10 32       	cpi	r17, 0x20	; 32
     cda:	e9 f3       	breq	.-6      	; 0xcd6 <atol+0xc>
     cdc:	19 30       	cpi	r17, 0x09	; 9
     cde:	10 f0       	brcs	.+4      	; 0xce4 <atol+0x1a>
     ce0:	1e 30       	cpi	r17, 0x0E	; 14
     ce2:	c8 f3       	brcs	.-14     	; 0xcd6 <atol+0xc>
     ce4:	1b 32       	cpi	r17, 0x2B	; 43
     ce6:	49 f0       	breq	.+18     	; 0xcfa <atol+0x30>
     ce8:	1d 32       	cpi	r17, 0x2D	; 45
     cea:	41 f4       	brne	.+16     	; 0xcfc <atol+0x32>
     cec:	68 94       	set
     cee:	05 c0       	rjmp	.+10     	; 0xcfa <atol+0x30>
     cf0:	1b d0       	rcall	.+54     	; 0xd28 <__mulsi_const_10>
     cf2:	61 0f       	add	r22, r17
     cf4:	71 1d       	adc	r23, r1
     cf6:	81 1d       	adc	r24, r1
     cf8:	91 1d       	adc	r25, r1
     cfa:	11 91       	ld	r17, Z+
     cfc:	10 53       	subi	r17, 0x30	; 48
     cfe:	1a 30       	cpi	r17, 0x0A	; 10
     d00:	b8 f3       	brcs	.-18     	; 0xcf0 <atol+0x26>
     d02:	3e f4       	brtc	.+14     	; 0xd12 <atol+0x48>
     d04:	90 95       	com	r25
     d06:	80 95       	com	r24
     d08:	70 95       	com	r23
     d0a:	61 95       	neg	r22
     d0c:	7f 4f       	sbci	r23, 0xFF	; 255
     d0e:	8f 4f       	sbci	r24, 0xFF	; 255
     d10:	9f 4f       	sbci	r25, 0xFF	; 255
     d12:	1f 91       	pop	r17
     d14:	08 95       	ret

00000d16 <strcmp>:
     d16:	fb 01       	movw	r30, r22
     d18:	dc 01       	movw	r26, r24
     d1a:	8d 91       	ld	r24, X+
     d1c:	01 90       	ld	r0, Z+
     d1e:	80 19       	sub	r24, r0
     d20:	01 10       	cpse	r0, r1
     d22:	d9 f3       	breq	.-10     	; 0xd1a <strcmp+0x4>
     d24:	99 0b       	sbc	r25, r25
     d26:	08 95       	ret

00000d28 <__mulsi_const_10>:
     d28:	59 2f       	mov	r21, r25
     d2a:	48 2f       	mov	r20, r24
     d2c:	37 2f       	mov	r19, r23
     d2e:	26 2f       	mov	r18, r22
     d30:	66 0f       	add	r22, r22
     d32:	77 1f       	adc	r23, r23
     d34:	88 1f       	adc	r24, r24
     d36:	99 1f       	adc	r25, r25
     d38:	66 0f       	add	r22, r22
     d3a:	77 1f       	adc	r23, r23
     d3c:	88 1f       	adc	r24, r24
     d3e:	99 1f       	adc	r25, r25
     d40:	62 0f       	add	r22, r18
     d42:	73 1f       	adc	r23, r19
     d44:	84 1f       	adc	r24, r20
     d46:	95 1f       	adc	r25, r21
     d48:	66 0f       	add	r22, r22
     d4a:	77 1f       	adc	r23, r23
     d4c:	88 1f       	adc	r24, r24
     d4e:	99 1f       	adc	r25, r25
     d50:	08 95       	ret

00000d52 <putchar>:
     d52:	60 91 a9 03 	lds	r22, 0x03A9
     d56:	70 91 aa 03 	lds	r23, 0x03AA
     d5a:	5f c2       	rjmp	.+1214   	; 0x121a <fputc>

00000d5c <puts>:
     d5c:	0f 93       	push	r16
     d5e:	1f 93       	push	r17
     d60:	cf 93       	push	r28
     d62:	df 93       	push	r29
     d64:	e0 91 a9 03 	lds	r30, 0x03A9
     d68:	f0 91 aa 03 	lds	r31, 0x03AA
     d6c:	23 81       	ldd	r18, Z+3	; 0x03
     d6e:	21 ff       	sbrs	r18, 1
     d70:	1b c0       	rjmp	.+54     	; 0xda8 <puts+0x4c>
     d72:	ec 01       	movw	r28, r24
     d74:	00 e0       	ldi	r16, 0x00	; 0
     d76:	10 e0       	ldi	r17, 0x00	; 0
     d78:	89 91       	ld	r24, Y+
     d7a:	60 91 a9 03 	lds	r22, 0x03A9
     d7e:	70 91 aa 03 	lds	r23, 0x03AA
     d82:	db 01       	movw	r26, r22
     d84:	18 96       	adiw	r26, 0x08	; 8
     d86:	ed 91       	ld	r30, X+
     d88:	fc 91       	ld	r31, X
     d8a:	19 97       	sbiw	r26, 0x09	; 9
     d8c:	88 23       	and	r24, r24
     d8e:	31 f0       	breq	.+12     	; 0xd9c <puts+0x40>
     d90:	09 95       	icall
     d92:	89 2b       	or	r24, r25
     d94:	89 f3       	breq	.-30     	; 0xd78 <puts+0x1c>
     d96:	0f ef       	ldi	r16, 0xFF	; 255
     d98:	1f ef       	ldi	r17, 0xFF	; 255
     d9a:	ee cf       	rjmp	.-36     	; 0xd78 <puts+0x1c>
     d9c:	8a e0       	ldi	r24, 0x0A	; 10
     d9e:	09 95       	icall
     da0:	89 2b       	or	r24, r25
     da2:	11 f4       	brne	.+4      	; 0xda8 <puts+0x4c>
     da4:	c8 01       	movw	r24, r16
     da6:	02 c0       	rjmp	.+4      	; 0xdac <puts+0x50>
     da8:	8f ef       	ldi	r24, 0xFF	; 255
     daa:	9f ef       	ldi	r25, 0xFF	; 255
     dac:	df 91       	pop	r29
     dae:	cf 91       	pop	r28
     db0:	1f 91       	pop	r17
     db2:	0f 91       	pop	r16
     db4:	08 95       	ret

00000db6 <sprintf>:
     db6:	0f 93       	push	r16
     db8:	1f 93       	push	r17
     dba:	cf 93       	push	r28
     dbc:	df 93       	push	r29
     dbe:	cd b7       	in	r28, 0x3d	; 61
     dc0:	de b7       	in	r29, 0x3e	; 62
     dc2:	2e 97       	sbiw	r28, 0x0e	; 14
     dc4:	0f b6       	in	r0, 0x3f	; 63
     dc6:	f8 94       	cli
     dc8:	de bf       	out	0x3e, r29	; 62
     dca:	0f be       	out	0x3f, r0	; 63
     dcc:	cd bf       	out	0x3d, r28	; 61
     dce:	0d 89       	ldd	r16, Y+21	; 0x15
     dd0:	1e 89       	ldd	r17, Y+22	; 0x16
     dd2:	86 e0       	ldi	r24, 0x06	; 6
     dd4:	8c 83       	std	Y+4, r24	; 0x04
     dd6:	1a 83       	std	Y+2, r17	; 0x02
     dd8:	09 83       	std	Y+1, r16	; 0x01
     dda:	8f ef       	ldi	r24, 0xFF	; 255
     ddc:	9f e7       	ldi	r25, 0x7F	; 127
     dde:	9e 83       	std	Y+6, r25	; 0x06
     de0:	8d 83       	std	Y+5, r24	; 0x05
     de2:	ae 01       	movw	r20, r28
     de4:	47 5e       	subi	r20, 0xE7	; 231
     de6:	5f 4f       	sbci	r21, 0xFF	; 255
     de8:	6f 89       	ldd	r22, Y+23	; 0x17
     dea:	78 8d       	ldd	r23, Y+24	; 0x18
     dec:	ce 01       	movw	r24, r28
     dee:	01 96       	adiw	r24, 0x01	; 1
     df0:	10 d0       	rcall	.+32     	; 0xe12 <vfprintf>
     df2:	ef 81       	ldd	r30, Y+7	; 0x07
     df4:	f8 85       	ldd	r31, Y+8	; 0x08
     df6:	e0 0f       	add	r30, r16
     df8:	f1 1f       	adc	r31, r17
     dfa:	10 82       	st	Z, r1
     dfc:	2e 96       	adiw	r28, 0x0e	; 14
     dfe:	0f b6       	in	r0, 0x3f	; 63
     e00:	f8 94       	cli
     e02:	de bf       	out	0x3e, r29	; 62
     e04:	0f be       	out	0x3f, r0	; 63
     e06:	cd bf       	out	0x3d, r28	; 61
     e08:	df 91       	pop	r29
     e0a:	cf 91       	pop	r28
     e0c:	1f 91       	pop	r17
     e0e:	0f 91       	pop	r16
     e10:	08 95       	ret

00000e12 <vfprintf>:
     e12:	2f 92       	push	r2
     e14:	3f 92       	push	r3
     e16:	4f 92       	push	r4
     e18:	5f 92       	push	r5
     e1a:	6f 92       	push	r6
     e1c:	7f 92       	push	r7
     e1e:	8f 92       	push	r8
     e20:	9f 92       	push	r9
     e22:	af 92       	push	r10
     e24:	bf 92       	push	r11
     e26:	cf 92       	push	r12
     e28:	df 92       	push	r13
     e2a:	ef 92       	push	r14
     e2c:	ff 92       	push	r15
     e2e:	0f 93       	push	r16
     e30:	1f 93       	push	r17
     e32:	cf 93       	push	r28
     e34:	df 93       	push	r29
     e36:	cd b7       	in	r28, 0x3d	; 61
     e38:	de b7       	in	r29, 0x3e	; 62
     e3a:	2c 97       	sbiw	r28, 0x0c	; 12
     e3c:	0f b6       	in	r0, 0x3f	; 63
     e3e:	f8 94       	cli
     e40:	de bf       	out	0x3e, r29	; 62
     e42:	0f be       	out	0x3f, r0	; 63
     e44:	cd bf       	out	0x3d, r28	; 61
     e46:	7c 01       	movw	r14, r24
     e48:	6b 01       	movw	r12, r22
     e4a:	8a 01       	movw	r16, r20
     e4c:	fc 01       	movw	r30, r24
     e4e:	17 82       	std	Z+7, r1	; 0x07
     e50:	16 82       	std	Z+6, r1	; 0x06
     e52:	83 81       	ldd	r24, Z+3	; 0x03
     e54:	81 ff       	sbrs	r24, 1
     e56:	b0 c1       	rjmp	.+864    	; 0x11b8 <vfprintf+0x3a6>
     e58:	ce 01       	movw	r24, r28
     e5a:	01 96       	adiw	r24, 0x01	; 1
     e5c:	4c 01       	movw	r8, r24
     e5e:	f7 01       	movw	r30, r14
     e60:	93 81       	ldd	r25, Z+3	; 0x03
     e62:	f6 01       	movw	r30, r12
     e64:	93 fd       	sbrc	r25, 3
     e66:	85 91       	lpm	r24, Z+
     e68:	93 ff       	sbrs	r25, 3
     e6a:	81 91       	ld	r24, Z+
     e6c:	6f 01       	movw	r12, r30
     e6e:	88 23       	and	r24, r24
     e70:	09 f4       	brne	.+2      	; 0xe74 <vfprintf+0x62>
     e72:	9e c1       	rjmp	.+828    	; 0x11b0 <vfprintf+0x39e>
     e74:	85 32       	cpi	r24, 0x25	; 37
     e76:	39 f4       	brne	.+14     	; 0xe86 <vfprintf+0x74>
     e78:	93 fd       	sbrc	r25, 3
     e7a:	85 91       	lpm	r24, Z+
     e7c:	93 ff       	sbrs	r25, 3
     e7e:	81 91       	ld	r24, Z+
     e80:	6f 01       	movw	r12, r30
     e82:	85 32       	cpi	r24, 0x25	; 37
     e84:	21 f4       	brne	.+8      	; 0xe8e <vfprintf+0x7c>
     e86:	b7 01       	movw	r22, r14
     e88:	90 e0       	ldi	r25, 0x00	; 0
     e8a:	c7 d1       	rcall	.+910    	; 0x121a <fputc>
     e8c:	e8 cf       	rjmp	.-48     	; 0xe5e <vfprintf+0x4c>
     e8e:	51 2c       	mov	r5, r1
     e90:	31 2c       	mov	r3, r1
     e92:	20 e0       	ldi	r18, 0x00	; 0
     e94:	20 32       	cpi	r18, 0x20	; 32
     e96:	a0 f4       	brcc	.+40     	; 0xec0 <vfprintf+0xae>
     e98:	8b 32       	cpi	r24, 0x2B	; 43
     e9a:	69 f0       	breq	.+26     	; 0xeb6 <vfprintf+0xa4>
     e9c:	30 f4       	brcc	.+12     	; 0xeaa <vfprintf+0x98>
     e9e:	80 32       	cpi	r24, 0x20	; 32
     ea0:	59 f0       	breq	.+22     	; 0xeb8 <vfprintf+0xa6>
     ea2:	83 32       	cpi	r24, 0x23	; 35
     ea4:	69 f4       	brne	.+26     	; 0xec0 <vfprintf+0xae>
     ea6:	20 61       	ori	r18, 0x10	; 16
     ea8:	2c c0       	rjmp	.+88     	; 0xf02 <vfprintf+0xf0>
     eaa:	8d 32       	cpi	r24, 0x2D	; 45
     eac:	39 f0       	breq	.+14     	; 0xebc <vfprintf+0xaa>
     eae:	80 33       	cpi	r24, 0x30	; 48
     eb0:	39 f4       	brne	.+14     	; 0xec0 <vfprintf+0xae>
     eb2:	21 60       	ori	r18, 0x01	; 1
     eb4:	26 c0       	rjmp	.+76     	; 0xf02 <vfprintf+0xf0>
     eb6:	22 60       	ori	r18, 0x02	; 2
     eb8:	24 60       	ori	r18, 0x04	; 4
     eba:	23 c0       	rjmp	.+70     	; 0xf02 <vfprintf+0xf0>
     ebc:	28 60       	ori	r18, 0x08	; 8
     ebe:	21 c0       	rjmp	.+66     	; 0xf02 <vfprintf+0xf0>
     ec0:	27 fd       	sbrc	r18, 7
     ec2:	27 c0       	rjmp	.+78     	; 0xf12 <vfprintf+0x100>
     ec4:	30 ed       	ldi	r19, 0xD0	; 208
     ec6:	38 0f       	add	r19, r24
     ec8:	3a 30       	cpi	r19, 0x0A	; 10
     eca:	78 f4       	brcc	.+30     	; 0xeea <vfprintf+0xd8>
     ecc:	26 ff       	sbrs	r18, 6
     ece:	06 c0       	rjmp	.+12     	; 0xedc <vfprintf+0xca>
     ed0:	fa e0       	ldi	r31, 0x0A	; 10
     ed2:	5f 9e       	mul	r5, r31
     ed4:	30 0d       	add	r19, r0
     ed6:	11 24       	eor	r1, r1
     ed8:	53 2e       	mov	r5, r19
     eda:	13 c0       	rjmp	.+38     	; 0xf02 <vfprintf+0xf0>
     edc:	8a e0       	ldi	r24, 0x0A	; 10
     ede:	38 9e       	mul	r3, r24
     ee0:	30 0d       	add	r19, r0
     ee2:	11 24       	eor	r1, r1
     ee4:	33 2e       	mov	r3, r19
     ee6:	20 62       	ori	r18, 0x20	; 32
     ee8:	0c c0       	rjmp	.+24     	; 0xf02 <vfprintf+0xf0>
     eea:	8e 32       	cpi	r24, 0x2E	; 46
     eec:	21 f4       	brne	.+8      	; 0xef6 <vfprintf+0xe4>
     eee:	26 fd       	sbrc	r18, 6
     ef0:	5f c1       	rjmp	.+702    	; 0x11b0 <vfprintf+0x39e>
     ef2:	20 64       	ori	r18, 0x40	; 64
     ef4:	06 c0       	rjmp	.+12     	; 0xf02 <vfprintf+0xf0>
     ef6:	8c 36       	cpi	r24, 0x6C	; 108
     ef8:	11 f4       	brne	.+4      	; 0xefe <vfprintf+0xec>
     efa:	20 68       	ori	r18, 0x80	; 128
     efc:	02 c0       	rjmp	.+4      	; 0xf02 <vfprintf+0xf0>
     efe:	88 36       	cpi	r24, 0x68	; 104
     f00:	41 f4       	brne	.+16     	; 0xf12 <vfprintf+0x100>
     f02:	f6 01       	movw	r30, r12
     f04:	93 fd       	sbrc	r25, 3
     f06:	85 91       	lpm	r24, Z+
     f08:	93 ff       	sbrs	r25, 3
     f0a:	81 91       	ld	r24, Z+
     f0c:	6f 01       	movw	r12, r30
     f0e:	81 11       	cpse	r24, r1
     f10:	c1 cf       	rjmp	.-126    	; 0xe94 <vfprintf+0x82>
     f12:	98 2f       	mov	r25, r24
     f14:	9f 7d       	andi	r25, 0xDF	; 223
     f16:	95 54       	subi	r25, 0x45	; 69
     f18:	93 30       	cpi	r25, 0x03	; 3
     f1a:	28 f4       	brcc	.+10     	; 0xf26 <vfprintf+0x114>
     f1c:	0c 5f       	subi	r16, 0xFC	; 252
     f1e:	1f 4f       	sbci	r17, 0xFF	; 255
     f20:	ff e3       	ldi	r31, 0x3F	; 63
     f22:	f9 83       	std	Y+1, r31	; 0x01
     f24:	0d c0       	rjmp	.+26     	; 0xf40 <vfprintf+0x12e>
     f26:	83 36       	cpi	r24, 0x63	; 99
     f28:	31 f0       	breq	.+12     	; 0xf36 <vfprintf+0x124>
     f2a:	83 37       	cpi	r24, 0x73	; 115
     f2c:	71 f0       	breq	.+28     	; 0xf4a <vfprintf+0x138>
     f2e:	83 35       	cpi	r24, 0x53	; 83
     f30:	09 f0       	breq	.+2      	; 0xf34 <vfprintf+0x122>
     f32:	57 c0       	rjmp	.+174    	; 0xfe2 <vfprintf+0x1d0>
     f34:	21 c0       	rjmp	.+66     	; 0xf78 <vfprintf+0x166>
     f36:	f8 01       	movw	r30, r16
     f38:	80 81       	ld	r24, Z
     f3a:	89 83       	std	Y+1, r24	; 0x01
     f3c:	0e 5f       	subi	r16, 0xFE	; 254
     f3e:	1f 4f       	sbci	r17, 0xFF	; 255
     f40:	44 24       	eor	r4, r4
     f42:	43 94       	inc	r4
     f44:	51 2c       	mov	r5, r1
     f46:	54 01       	movw	r10, r8
     f48:	14 c0       	rjmp	.+40     	; 0xf72 <vfprintf+0x160>
     f4a:	38 01       	movw	r6, r16
     f4c:	f2 e0       	ldi	r31, 0x02	; 2
     f4e:	6f 0e       	add	r6, r31
     f50:	71 1c       	adc	r7, r1
     f52:	f8 01       	movw	r30, r16
     f54:	a0 80       	ld	r10, Z
     f56:	b1 80       	ldd	r11, Z+1	; 0x01
     f58:	26 ff       	sbrs	r18, 6
     f5a:	03 c0       	rjmp	.+6      	; 0xf62 <vfprintf+0x150>
     f5c:	65 2d       	mov	r22, r5
     f5e:	70 e0       	ldi	r23, 0x00	; 0
     f60:	02 c0       	rjmp	.+4      	; 0xf66 <vfprintf+0x154>
     f62:	6f ef       	ldi	r22, 0xFF	; 255
     f64:	7f ef       	ldi	r23, 0xFF	; 255
     f66:	c5 01       	movw	r24, r10
     f68:	2c 87       	std	Y+12, r18	; 0x0c
     f6a:	4c d1       	rcall	.+664    	; 0x1204 <strnlen>
     f6c:	2c 01       	movw	r4, r24
     f6e:	83 01       	movw	r16, r6
     f70:	2c 85       	ldd	r18, Y+12	; 0x0c
     f72:	2f 77       	andi	r18, 0x7F	; 127
     f74:	22 2e       	mov	r2, r18
     f76:	16 c0       	rjmp	.+44     	; 0xfa4 <vfprintf+0x192>
     f78:	38 01       	movw	r6, r16
     f7a:	f2 e0       	ldi	r31, 0x02	; 2
     f7c:	6f 0e       	add	r6, r31
     f7e:	71 1c       	adc	r7, r1
     f80:	f8 01       	movw	r30, r16
     f82:	a0 80       	ld	r10, Z
     f84:	b1 80       	ldd	r11, Z+1	; 0x01
     f86:	26 ff       	sbrs	r18, 6
     f88:	03 c0       	rjmp	.+6      	; 0xf90 <vfprintf+0x17e>
     f8a:	65 2d       	mov	r22, r5
     f8c:	70 e0       	ldi	r23, 0x00	; 0
     f8e:	02 c0       	rjmp	.+4      	; 0xf94 <vfprintf+0x182>
     f90:	6f ef       	ldi	r22, 0xFF	; 255
     f92:	7f ef       	ldi	r23, 0xFF	; 255
     f94:	c5 01       	movw	r24, r10
     f96:	2c 87       	std	Y+12, r18	; 0x0c
     f98:	2a d1       	rcall	.+596    	; 0x11ee <strnlen_P>
     f9a:	2c 01       	movw	r4, r24
     f9c:	2c 85       	ldd	r18, Y+12	; 0x0c
     f9e:	20 68       	ori	r18, 0x80	; 128
     fa0:	22 2e       	mov	r2, r18
     fa2:	83 01       	movw	r16, r6
     fa4:	23 fc       	sbrc	r2, 3
     fa6:	19 c0       	rjmp	.+50     	; 0xfda <vfprintf+0x1c8>
     fa8:	83 2d       	mov	r24, r3
     faa:	90 e0       	ldi	r25, 0x00	; 0
     fac:	48 16       	cp	r4, r24
     fae:	59 06       	cpc	r5, r25
     fb0:	a0 f4       	brcc	.+40     	; 0xfda <vfprintf+0x1c8>
     fb2:	b7 01       	movw	r22, r14
     fb4:	80 e2       	ldi	r24, 0x20	; 32
     fb6:	90 e0       	ldi	r25, 0x00	; 0
     fb8:	30 d1       	rcall	.+608    	; 0x121a <fputc>
     fba:	3a 94       	dec	r3
     fbc:	f5 cf       	rjmp	.-22     	; 0xfa8 <vfprintf+0x196>
     fbe:	f5 01       	movw	r30, r10
     fc0:	27 fc       	sbrc	r2, 7
     fc2:	85 91       	lpm	r24, Z+
     fc4:	27 fe       	sbrs	r2, 7
     fc6:	81 91       	ld	r24, Z+
     fc8:	5f 01       	movw	r10, r30
     fca:	b7 01       	movw	r22, r14
     fcc:	90 e0       	ldi	r25, 0x00	; 0
     fce:	25 d1       	rcall	.+586    	; 0x121a <fputc>
     fd0:	31 10       	cpse	r3, r1
     fd2:	3a 94       	dec	r3
     fd4:	f1 e0       	ldi	r31, 0x01	; 1
     fd6:	4f 1a       	sub	r4, r31
     fd8:	51 08       	sbc	r5, r1
     fda:	41 14       	cp	r4, r1
     fdc:	51 04       	cpc	r5, r1
     fde:	79 f7       	brne	.-34     	; 0xfbe <vfprintf+0x1ac>
     fe0:	de c0       	rjmp	.+444    	; 0x119e <vfprintf+0x38c>
     fe2:	84 36       	cpi	r24, 0x64	; 100
     fe4:	11 f0       	breq	.+4      	; 0xfea <vfprintf+0x1d8>
     fe6:	89 36       	cpi	r24, 0x69	; 105
     fe8:	31 f5       	brne	.+76     	; 0x1036 <vfprintf+0x224>
     fea:	f8 01       	movw	r30, r16
     fec:	27 ff       	sbrs	r18, 7
     fee:	07 c0       	rjmp	.+14     	; 0xffe <vfprintf+0x1ec>
     ff0:	60 81       	ld	r22, Z
     ff2:	71 81       	ldd	r23, Z+1	; 0x01
     ff4:	82 81       	ldd	r24, Z+2	; 0x02
     ff6:	93 81       	ldd	r25, Z+3	; 0x03
     ff8:	0c 5f       	subi	r16, 0xFC	; 252
     ffa:	1f 4f       	sbci	r17, 0xFF	; 255
     ffc:	08 c0       	rjmp	.+16     	; 0x100e <vfprintf+0x1fc>
     ffe:	60 81       	ld	r22, Z
    1000:	71 81       	ldd	r23, Z+1	; 0x01
    1002:	88 27       	eor	r24, r24
    1004:	77 fd       	sbrc	r23, 7
    1006:	80 95       	com	r24
    1008:	98 2f       	mov	r25, r24
    100a:	0e 5f       	subi	r16, 0xFE	; 254
    100c:	1f 4f       	sbci	r17, 0xFF	; 255
    100e:	2f 76       	andi	r18, 0x6F	; 111
    1010:	b2 2e       	mov	r11, r18
    1012:	97 ff       	sbrs	r25, 7
    1014:	09 c0       	rjmp	.+18     	; 0x1028 <vfprintf+0x216>
    1016:	90 95       	com	r25
    1018:	80 95       	com	r24
    101a:	70 95       	com	r23
    101c:	61 95       	neg	r22
    101e:	7f 4f       	sbci	r23, 0xFF	; 255
    1020:	8f 4f       	sbci	r24, 0xFF	; 255
    1022:	9f 4f       	sbci	r25, 0xFF	; 255
    1024:	20 68       	ori	r18, 0x80	; 128
    1026:	b2 2e       	mov	r11, r18
    1028:	2a e0       	ldi	r18, 0x0A	; 10
    102a:	30 e0       	ldi	r19, 0x00	; 0
    102c:	a4 01       	movw	r20, r8
    102e:	27 d1       	rcall	.+590    	; 0x127e <__ultoa_invert>
    1030:	a8 2e       	mov	r10, r24
    1032:	a8 18       	sub	r10, r8
    1034:	43 c0       	rjmp	.+134    	; 0x10bc <vfprintf+0x2aa>
    1036:	85 37       	cpi	r24, 0x75	; 117
    1038:	29 f4       	brne	.+10     	; 0x1044 <vfprintf+0x232>
    103a:	2f 7e       	andi	r18, 0xEF	; 239
    103c:	b2 2e       	mov	r11, r18
    103e:	2a e0       	ldi	r18, 0x0A	; 10
    1040:	30 e0       	ldi	r19, 0x00	; 0
    1042:	25 c0       	rjmp	.+74     	; 0x108e <vfprintf+0x27c>
    1044:	f2 2f       	mov	r31, r18
    1046:	f9 7f       	andi	r31, 0xF9	; 249
    1048:	bf 2e       	mov	r11, r31
    104a:	8f 36       	cpi	r24, 0x6F	; 111
    104c:	c1 f0       	breq	.+48     	; 0x107e <vfprintf+0x26c>
    104e:	18 f4       	brcc	.+6      	; 0x1056 <vfprintf+0x244>
    1050:	88 35       	cpi	r24, 0x58	; 88
    1052:	79 f0       	breq	.+30     	; 0x1072 <vfprintf+0x260>
    1054:	ad c0       	rjmp	.+346    	; 0x11b0 <vfprintf+0x39e>
    1056:	80 37       	cpi	r24, 0x70	; 112
    1058:	19 f0       	breq	.+6      	; 0x1060 <vfprintf+0x24e>
    105a:	88 37       	cpi	r24, 0x78	; 120
    105c:	21 f0       	breq	.+8      	; 0x1066 <vfprintf+0x254>
    105e:	a8 c0       	rjmp	.+336    	; 0x11b0 <vfprintf+0x39e>
    1060:	2f 2f       	mov	r18, r31
    1062:	20 61       	ori	r18, 0x10	; 16
    1064:	b2 2e       	mov	r11, r18
    1066:	b4 fe       	sbrs	r11, 4
    1068:	0d c0       	rjmp	.+26     	; 0x1084 <vfprintf+0x272>
    106a:	8b 2d       	mov	r24, r11
    106c:	84 60       	ori	r24, 0x04	; 4
    106e:	b8 2e       	mov	r11, r24
    1070:	09 c0       	rjmp	.+18     	; 0x1084 <vfprintf+0x272>
    1072:	24 ff       	sbrs	r18, 4
    1074:	0a c0       	rjmp	.+20     	; 0x108a <vfprintf+0x278>
    1076:	9f 2f       	mov	r25, r31
    1078:	96 60       	ori	r25, 0x06	; 6
    107a:	b9 2e       	mov	r11, r25
    107c:	06 c0       	rjmp	.+12     	; 0x108a <vfprintf+0x278>
    107e:	28 e0       	ldi	r18, 0x08	; 8
    1080:	30 e0       	ldi	r19, 0x00	; 0
    1082:	05 c0       	rjmp	.+10     	; 0x108e <vfprintf+0x27c>
    1084:	20 e1       	ldi	r18, 0x10	; 16
    1086:	30 e0       	ldi	r19, 0x00	; 0
    1088:	02 c0       	rjmp	.+4      	; 0x108e <vfprintf+0x27c>
    108a:	20 e1       	ldi	r18, 0x10	; 16
    108c:	32 e0       	ldi	r19, 0x02	; 2
    108e:	f8 01       	movw	r30, r16
    1090:	b7 fe       	sbrs	r11, 7
    1092:	07 c0       	rjmp	.+14     	; 0x10a2 <vfprintf+0x290>
    1094:	60 81       	ld	r22, Z
    1096:	71 81       	ldd	r23, Z+1	; 0x01
    1098:	82 81       	ldd	r24, Z+2	; 0x02
    109a:	93 81       	ldd	r25, Z+3	; 0x03
    109c:	0c 5f       	subi	r16, 0xFC	; 252
    109e:	1f 4f       	sbci	r17, 0xFF	; 255
    10a0:	06 c0       	rjmp	.+12     	; 0x10ae <vfprintf+0x29c>
    10a2:	60 81       	ld	r22, Z
    10a4:	71 81       	ldd	r23, Z+1	; 0x01
    10a6:	80 e0       	ldi	r24, 0x00	; 0
    10a8:	90 e0       	ldi	r25, 0x00	; 0
    10aa:	0e 5f       	subi	r16, 0xFE	; 254
    10ac:	1f 4f       	sbci	r17, 0xFF	; 255
    10ae:	a4 01       	movw	r20, r8
    10b0:	e6 d0       	rcall	.+460    	; 0x127e <__ultoa_invert>
    10b2:	a8 2e       	mov	r10, r24
    10b4:	a8 18       	sub	r10, r8
    10b6:	fb 2d       	mov	r31, r11
    10b8:	ff 77       	andi	r31, 0x7F	; 127
    10ba:	bf 2e       	mov	r11, r31
    10bc:	b6 fe       	sbrs	r11, 6
    10be:	0b c0       	rjmp	.+22     	; 0x10d6 <vfprintf+0x2c4>
    10c0:	2b 2d       	mov	r18, r11
    10c2:	2e 7f       	andi	r18, 0xFE	; 254
    10c4:	a5 14       	cp	r10, r5
    10c6:	50 f4       	brcc	.+20     	; 0x10dc <vfprintf+0x2ca>
    10c8:	b4 fe       	sbrs	r11, 4
    10ca:	0a c0       	rjmp	.+20     	; 0x10e0 <vfprintf+0x2ce>
    10cc:	b2 fc       	sbrc	r11, 2
    10ce:	08 c0       	rjmp	.+16     	; 0x10e0 <vfprintf+0x2ce>
    10d0:	2b 2d       	mov	r18, r11
    10d2:	2e 7e       	andi	r18, 0xEE	; 238
    10d4:	05 c0       	rjmp	.+10     	; 0x10e0 <vfprintf+0x2ce>
    10d6:	7a 2c       	mov	r7, r10
    10d8:	2b 2d       	mov	r18, r11
    10da:	03 c0       	rjmp	.+6      	; 0x10e2 <vfprintf+0x2d0>
    10dc:	7a 2c       	mov	r7, r10
    10de:	01 c0       	rjmp	.+2      	; 0x10e2 <vfprintf+0x2d0>
    10e0:	75 2c       	mov	r7, r5
    10e2:	24 ff       	sbrs	r18, 4
    10e4:	0d c0       	rjmp	.+26     	; 0x1100 <vfprintf+0x2ee>
    10e6:	fe 01       	movw	r30, r28
    10e8:	ea 0d       	add	r30, r10
    10ea:	f1 1d       	adc	r31, r1
    10ec:	80 81       	ld	r24, Z
    10ee:	80 33       	cpi	r24, 0x30	; 48
    10f0:	11 f4       	brne	.+4      	; 0x10f6 <vfprintf+0x2e4>
    10f2:	29 7e       	andi	r18, 0xE9	; 233
    10f4:	09 c0       	rjmp	.+18     	; 0x1108 <vfprintf+0x2f6>
    10f6:	22 ff       	sbrs	r18, 2
    10f8:	06 c0       	rjmp	.+12     	; 0x1106 <vfprintf+0x2f4>
    10fa:	73 94       	inc	r7
    10fc:	73 94       	inc	r7
    10fe:	04 c0       	rjmp	.+8      	; 0x1108 <vfprintf+0x2f6>
    1100:	82 2f       	mov	r24, r18
    1102:	86 78       	andi	r24, 0x86	; 134
    1104:	09 f0       	breq	.+2      	; 0x1108 <vfprintf+0x2f6>
    1106:	73 94       	inc	r7
    1108:	23 fd       	sbrc	r18, 3
    110a:	12 c0       	rjmp	.+36     	; 0x1130 <vfprintf+0x31e>
    110c:	20 ff       	sbrs	r18, 0
    110e:	06 c0       	rjmp	.+12     	; 0x111c <vfprintf+0x30a>
    1110:	5a 2c       	mov	r5, r10
    1112:	73 14       	cp	r7, r3
    1114:	18 f4       	brcc	.+6      	; 0x111c <vfprintf+0x30a>
    1116:	53 0c       	add	r5, r3
    1118:	57 18       	sub	r5, r7
    111a:	73 2c       	mov	r7, r3
    111c:	73 14       	cp	r7, r3
    111e:	60 f4       	brcc	.+24     	; 0x1138 <vfprintf+0x326>
    1120:	b7 01       	movw	r22, r14
    1122:	80 e2       	ldi	r24, 0x20	; 32
    1124:	90 e0       	ldi	r25, 0x00	; 0
    1126:	2c 87       	std	Y+12, r18	; 0x0c
    1128:	78 d0       	rcall	.+240    	; 0x121a <fputc>
    112a:	73 94       	inc	r7
    112c:	2c 85       	ldd	r18, Y+12	; 0x0c
    112e:	f6 cf       	rjmp	.-20     	; 0x111c <vfprintf+0x30a>
    1130:	73 14       	cp	r7, r3
    1132:	10 f4       	brcc	.+4      	; 0x1138 <vfprintf+0x326>
    1134:	37 18       	sub	r3, r7
    1136:	01 c0       	rjmp	.+2      	; 0x113a <vfprintf+0x328>
    1138:	31 2c       	mov	r3, r1
    113a:	24 ff       	sbrs	r18, 4
    113c:	11 c0       	rjmp	.+34     	; 0x1160 <vfprintf+0x34e>
    113e:	b7 01       	movw	r22, r14
    1140:	80 e3       	ldi	r24, 0x30	; 48
    1142:	90 e0       	ldi	r25, 0x00	; 0
    1144:	2c 87       	std	Y+12, r18	; 0x0c
    1146:	69 d0       	rcall	.+210    	; 0x121a <fputc>
    1148:	2c 85       	ldd	r18, Y+12	; 0x0c
    114a:	22 ff       	sbrs	r18, 2
    114c:	16 c0       	rjmp	.+44     	; 0x117a <vfprintf+0x368>
    114e:	21 ff       	sbrs	r18, 1
    1150:	03 c0       	rjmp	.+6      	; 0x1158 <vfprintf+0x346>
    1152:	88 e5       	ldi	r24, 0x58	; 88
    1154:	90 e0       	ldi	r25, 0x00	; 0
    1156:	02 c0       	rjmp	.+4      	; 0x115c <vfprintf+0x34a>
    1158:	88 e7       	ldi	r24, 0x78	; 120
    115a:	90 e0       	ldi	r25, 0x00	; 0
    115c:	b7 01       	movw	r22, r14
    115e:	0c c0       	rjmp	.+24     	; 0x1178 <vfprintf+0x366>
    1160:	82 2f       	mov	r24, r18
    1162:	86 78       	andi	r24, 0x86	; 134
    1164:	51 f0       	breq	.+20     	; 0x117a <vfprintf+0x368>
    1166:	21 fd       	sbrc	r18, 1
    1168:	02 c0       	rjmp	.+4      	; 0x116e <vfprintf+0x35c>
    116a:	80 e2       	ldi	r24, 0x20	; 32
    116c:	01 c0       	rjmp	.+2      	; 0x1170 <vfprintf+0x35e>
    116e:	8b e2       	ldi	r24, 0x2B	; 43
    1170:	27 fd       	sbrc	r18, 7
    1172:	8d e2       	ldi	r24, 0x2D	; 45
    1174:	b7 01       	movw	r22, r14
    1176:	90 e0       	ldi	r25, 0x00	; 0
    1178:	50 d0       	rcall	.+160    	; 0x121a <fputc>
    117a:	a5 14       	cp	r10, r5
    117c:	30 f4       	brcc	.+12     	; 0x118a <vfprintf+0x378>
    117e:	b7 01       	movw	r22, r14
    1180:	80 e3       	ldi	r24, 0x30	; 48
    1182:	90 e0       	ldi	r25, 0x00	; 0
    1184:	4a d0       	rcall	.+148    	; 0x121a <fputc>
    1186:	5a 94       	dec	r5
    1188:	f8 cf       	rjmp	.-16     	; 0x117a <vfprintf+0x368>
    118a:	aa 94       	dec	r10
    118c:	f4 01       	movw	r30, r8
    118e:	ea 0d       	add	r30, r10
    1190:	f1 1d       	adc	r31, r1
    1192:	80 81       	ld	r24, Z
    1194:	b7 01       	movw	r22, r14
    1196:	90 e0       	ldi	r25, 0x00	; 0
    1198:	40 d0       	rcall	.+128    	; 0x121a <fputc>
    119a:	a1 10       	cpse	r10, r1
    119c:	f6 cf       	rjmp	.-20     	; 0x118a <vfprintf+0x378>
    119e:	33 20       	and	r3, r3
    11a0:	09 f4       	brne	.+2      	; 0x11a4 <vfprintf+0x392>
    11a2:	5d ce       	rjmp	.-838    	; 0xe5e <vfprintf+0x4c>
    11a4:	b7 01       	movw	r22, r14
    11a6:	80 e2       	ldi	r24, 0x20	; 32
    11a8:	90 e0       	ldi	r25, 0x00	; 0
    11aa:	37 d0       	rcall	.+110    	; 0x121a <fputc>
    11ac:	3a 94       	dec	r3
    11ae:	f7 cf       	rjmp	.-18     	; 0x119e <vfprintf+0x38c>
    11b0:	f7 01       	movw	r30, r14
    11b2:	86 81       	ldd	r24, Z+6	; 0x06
    11b4:	97 81       	ldd	r25, Z+7	; 0x07
    11b6:	02 c0       	rjmp	.+4      	; 0x11bc <vfprintf+0x3aa>
    11b8:	8f ef       	ldi	r24, 0xFF	; 255
    11ba:	9f ef       	ldi	r25, 0xFF	; 255
    11bc:	2c 96       	adiw	r28, 0x0c	; 12
    11be:	0f b6       	in	r0, 0x3f	; 63
    11c0:	f8 94       	cli
    11c2:	de bf       	out	0x3e, r29	; 62
    11c4:	0f be       	out	0x3f, r0	; 63
    11c6:	cd bf       	out	0x3d, r28	; 61
    11c8:	df 91       	pop	r29
    11ca:	cf 91       	pop	r28
    11cc:	1f 91       	pop	r17
    11ce:	0f 91       	pop	r16
    11d0:	ff 90       	pop	r15
    11d2:	ef 90       	pop	r14
    11d4:	df 90       	pop	r13
    11d6:	cf 90       	pop	r12
    11d8:	bf 90       	pop	r11
    11da:	af 90       	pop	r10
    11dc:	9f 90       	pop	r9
    11de:	8f 90       	pop	r8
    11e0:	7f 90       	pop	r7
    11e2:	6f 90       	pop	r6
    11e4:	5f 90       	pop	r5
    11e6:	4f 90       	pop	r4
    11e8:	3f 90       	pop	r3
    11ea:	2f 90       	pop	r2
    11ec:	08 95       	ret

000011ee <strnlen_P>:
    11ee:	fc 01       	movw	r30, r24
    11f0:	05 90       	lpm	r0, Z+
    11f2:	61 50       	subi	r22, 0x01	; 1
    11f4:	70 40       	sbci	r23, 0x00	; 0
    11f6:	01 10       	cpse	r0, r1
    11f8:	d8 f7       	brcc	.-10     	; 0x11f0 <strnlen_P+0x2>
    11fa:	80 95       	com	r24
    11fc:	90 95       	com	r25
    11fe:	8e 0f       	add	r24, r30
    1200:	9f 1f       	adc	r25, r31
    1202:	08 95       	ret

00001204 <strnlen>:
    1204:	fc 01       	movw	r30, r24
    1206:	61 50       	subi	r22, 0x01	; 1
    1208:	70 40       	sbci	r23, 0x00	; 0
    120a:	01 90       	ld	r0, Z+
    120c:	01 10       	cpse	r0, r1
    120e:	d8 f7       	brcc	.-10     	; 0x1206 <strnlen+0x2>
    1210:	80 95       	com	r24
    1212:	90 95       	com	r25
    1214:	8e 0f       	add	r24, r30
    1216:	9f 1f       	adc	r25, r31
    1218:	08 95       	ret

0000121a <fputc>:
    121a:	0f 93       	push	r16
    121c:	1f 93       	push	r17
    121e:	cf 93       	push	r28
    1220:	df 93       	push	r29
    1222:	18 2f       	mov	r17, r24
    1224:	09 2f       	mov	r16, r25
    1226:	eb 01       	movw	r28, r22
    1228:	8b 81       	ldd	r24, Y+3	; 0x03
    122a:	81 fd       	sbrc	r24, 1
    122c:	03 c0       	rjmp	.+6      	; 0x1234 <fputc+0x1a>
    122e:	8f ef       	ldi	r24, 0xFF	; 255
    1230:	9f ef       	ldi	r25, 0xFF	; 255
    1232:	20 c0       	rjmp	.+64     	; 0x1274 <fputc+0x5a>
    1234:	82 ff       	sbrs	r24, 2
    1236:	10 c0       	rjmp	.+32     	; 0x1258 <fputc+0x3e>
    1238:	4e 81       	ldd	r20, Y+6	; 0x06
    123a:	5f 81       	ldd	r21, Y+7	; 0x07
    123c:	2c 81       	ldd	r18, Y+4	; 0x04
    123e:	3d 81       	ldd	r19, Y+5	; 0x05
    1240:	42 17       	cp	r20, r18
    1242:	53 07       	cpc	r21, r19
    1244:	7c f4       	brge	.+30     	; 0x1264 <fputc+0x4a>
    1246:	e8 81       	ld	r30, Y
    1248:	f9 81       	ldd	r31, Y+1	; 0x01
    124a:	9f 01       	movw	r18, r30
    124c:	2f 5f       	subi	r18, 0xFF	; 255
    124e:	3f 4f       	sbci	r19, 0xFF	; 255
    1250:	39 83       	std	Y+1, r19	; 0x01
    1252:	28 83       	st	Y, r18
    1254:	10 83       	st	Z, r17
    1256:	06 c0       	rjmp	.+12     	; 0x1264 <fputc+0x4a>
    1258:	e8 85       	ldd	r30, Y+8	; 0x08
    125a:	f9 85       	ldd	r31, Y+9	; 0x09
    125c:	81 2f       	mov	r24, r17
    125e:	09 95       	icall
    1260:	89 2b       	or	r24, r25
    1262:	29 f7       	brne	.-54     	; 0x122e <fputc+0x14>
    1264:	2e 81       	ldd	r18, Y+6	; 0x06
    1266:	3f 81       	ldd	r19, Y+7	; 0x07
    1268:	2f 5f       	subi	r18, 0xFF	; 255
    126a:	3f 4f       	sbci	r19, 0xFF	; 255
    126c:	3f 83       	std	Y+7, r19	; 0x07
    126e:	2e 83       	std	Y+6, r18	; 0x06
    1270:	81 2f       	mov	r24, r17
    1272:	90 2f       	mov	r25, r16
    1274:	df 91       	pop	r29
    1276:	cf 91       	pop	r28
    1278:	1f 91       	pop	r17
    127a:	0f 91       	pop	r16
    127c:	08 95       	ret

0000127e <__ultoa_invert>:
    127e:	fa 01       	movw	r30, r20
    1280:	aa 27       	eor	r26, r26
    1282:	28 30       	cpi	r18, 0x08	; 8
    1284:	51 f1       	breq	.+84     	; 0x12da <__ultoa_invert+0x5c>
    1286:	20 31       	cpi	r18, 0x10	; 16
    1288:	81 f1       	breq	.+96     	; 0x12ea <__ultoa_invert+0x6c>
    128a:	e8 94       	clt
    128c:	6f 93       	push	r22
    128e:	6e 7f       	andi	r22, 0xFE	; 254
    1290:	6e 5f       	subi	r22, 0xFE	; 254
    1292:	7f 4f       	sbci	r23, 0xFF	; 255
    1294:	8f 4f       	sbci	r24, 0xFF	; 255
    1296:	9f 4f       	sbci	r25, 0xFF	; 255
    1298:	af 4f       	sbci	r26, 0xFF	; 255
    129a:	b1 e0       	ldi	r27, 0x01	; 1
    129c:	3e d0       	rcall	.+124    	; 0x131a <__ultoa_invert+0x9c>
    129e:	b4 e0       	ldi	r27, 0x04	; 4
    12a0:	3c d0       	rcall	.+120    	; 0x131a <__ultoa_invert+0x9c>
    12a2:	67 0f       	add	r22, r23
    12a4:	78 1f       	adc	r23, r24
    12a6:	89 1f       	adc	r24, r25
    12a8:	9a 1f       	adc	r25, r26
    12aa:	a1 1d       	adc	r26, r1
    12ac:	68 0f       	add	r22, r24
    12ae:	79 1f       	adc	r23, r25
    12b0:	8a 1f       	adc	r24, r26
    12b2:	91 1d       	adc	r25, r1
    12b4:	a1 1d       	adc	r26, r1
    12b6:	6a 0f       	add	r22, r26
    12b8:	71 1d       	adc	r23, r1
    12ba:	81 1d       	adc	r24, r1
    12bc:	91 1d       	adc	r25, r1
    12be:	a1 1d       	adc	r26, r1
    12c0:	20 d0       	rcall	.+64     	; 0x1302 <__ultoa_invert+0x84>
    12c2:	09 f4       	brne	.+2      	; 0x12c6 <__ultoa_invert+0x48>
    12c4:	68 94       	set
    12c6:	3f 91       	pop	r19
    12c8:	2a e0       	ldi	r18, 0x0A	; 10
    12ca:	26 9f       	mul	r18, r22
    12cc:	11 24       	eor	r1, r1
    12ce:	30 19       	sub	r19, r0
    12d0:	30 5d       	subi	r19, 0xD0	; 208
    12d2:	31 93       	st	Z+, r19
    12d4:	de f6       	brtc	.-74     	; 0x128c <__ultoa_invert+0xe>
    12d6:	cf 01       	movw	r24, r30
    12d8:	08 95       	ret
    12da:	46 2f       	mov	r20, r22
    12dc:	47 70       	andi	r20, 0x07	; 7
    12de:	40 5d       	subi	r20, 0xD0	; 208
    12e0:	41 93       	st	Z+, r20
    12e2:	b3 e0       	ldi	r27, 0x03	; 3
    12e4:	0f d0       	rcall	.+30     	; 0x1304 <__ultoa_invert+0x86>
    12e6:	c9 f7       	brne	.-14     	; 0x12da <__ultoa_invert+0x5c>
    12e8:	f6 cf       	rjmp	.-20     	; 0x12d6 <__ultoa_invert+0x58>
    12ea:	46 2f       	mov	r20, r22
    12ec:	4f 70       	andi	r20, 0x0F	; 15
    12ee:	40 5d       	subi	r20, 0xD0	; 208
    12f0:	4a 33       	cpi	r20, 0x3A	; 58
    12f2:	18 f0       	brcs	.+6      	; 0x12fa <__ultoa_invert+0x7c>
    12f4:	49 5d       	subi	r20, 0xD9	; 217
    12f6:	31 fd       	sbrc	r19, 1
    12f8:	40 52       	subi	r20, 0x20	; 32
    12fa:	41 93       	st	Z+, r20
    12fc:	02 d0       	rcall	.+4      	; 0x1302 <__ultoa_invert+0x84>
    12fe:	a9 f7       	brne	.-22     	; 0x12ea <__ultoa_invert+0x6c>
    1300:	ea cf       	rjmp	.-44     	; 0x12d6 <__ultoa_invert+0x58>
    1302:	b4 e0       	ldi	r27, 0x04	; 4
    1304:	a6 95       	lsr	r26
    1306:	97 95       	ror	r25
    1308:	87 95       	ror	r24
    130a:	77 95       	ror	r23
    130c:	67 95       	ror	r22
    130e:	ba 95       	dec	r27
    1310:	c9 f7       	brne	.-14     	; 0x1304 <__ultoa_invert+0x86>
    1312:	00 97       	sbiw	r24, 0x00	; 0
    1314:	61 05       	cpc	r22, r1
    1316:	71 05       	cpc	r23, r1
    1318:	08 95       	ret
    131a:	9b 01       	movw	r18, r22
    131c:	ac 01       	movw	r20, r24
    131e:	0a 2e       	mov	r0, r26
    1320:	06 94       	lsr	r0
    1322:	57 95       	ror	r21
    1324:	47 95       	ror	r20
    1326:	37 95       	ror	r19
    1328:	27 95       	ror	r18
    132a:	ba 95       	dec	r27
    132c:	c9 f7       	brne	.-14     	; 0x1320 <__ultoa_invert+0xa2>
    132e:	62 0f       	add	r22, r18
    1330:	73 1f       	adc	r23, r19
    1332:	84 1f       	adc	r24, r20
    1334:	95 1f       	adc	r25, r21
    1336:	a0 1d       	adc	r26, r0
    1338:	08 95       	ret

0000133a <_exit>:
    133a:	f8 94       	cli

0000133c <__stop_program>:
    133c:	ff cf       	rjmp	.-2      	; 0x133c <__stop_program>
