
Gate.elf:     file format elf32-avr

Sections:
Idx Name          Size      VMA       LMA       File off  Algn
  0 .data         00000088  00800200  000014e2  00001576  2**0
                  CONTENTS, ALLOC, LOAD, DATA
  1 .text         000014e2  00000000  00000000  00000094  2**1
                  CONTENTS, ALLOC, LOAD, READONLY, CODE
  2 .bss          00000150  00800288  00800288  000015fe  2**0
                  ALLOC
  3 .comment      0000005c  00000000  00000000  000015fe  2**0
                  CONTENTS, READONLY
  4 .debug_aranges 00000108  00000000  00000000  0000165a  2**0
                  CONTENTS, READONLY, DEBUGGING
  5 .debug_info   000014e0  00000000  00000000  00001762  2**0
                  CONTENTS, READONLY, DEBUGGING
  6 .debug_abbrev 00000902  00000000  00000000  00002c42  2**0
                  CONTENTS, READONLY, DEBUGGING
  7 .debug_line   00000994  00000000  00000000  00003544  2**0
                  CONTENTS, READONLY, DEBUGGING
  8 .debug_frame  000004dc  00000000  00000000  00003ed8  2**2
                  CONTENTS, READONLY, DEBUGGING
  9 .debug_str    0000068f  00000000  00000000  000043b4  2**0
                  CONTENTS, READONLY, DEBUGGING
 10 .debug_loc    00000d57  00000000  00000000  00004a43  2**0
                  CONTENTS, READONLY, DEBUGGING
 11 .debug_ranges 00000050  00000000  00000000  0000579a  2**0
                  CONTENTS, READONLY, DEBUGGING

Disassembly of section .text:

00000000 <__vectors>:
       0:	8f c0       	rjmp	.+286    	; 0x120 <__ctors_end>
       2:	00 00       	nop
       4:	ab c0       	rjmp	.+342    	; 0x15c <__bad_interrupt>
       6:	00 00       	nop
       8:	a9 c0       	rjmp	.+338    	; 0x15c <__bad_interrupt>
       a:	00 00       	nop
       c:	a7 c0       	rjmp	.+334    	; 0x15c <__bad_interrupt>
       e:	00 00       	nop
      10:	a5 c0       	rjmp	.+330    	; 0x15c <__bad_interrupt>
      12:	00 00       	nop
      14:	a3 c0       	rjmp	.+326    	; 0x15c <__bad_interrupt>
      16:	00 00       	nop
      18:	a1 c0       	rjmp	.+322    	; 0x15c <__bad_interrupt>
      1a:	00 00       	nop
      1c:	9f c0       	rjmp	.+318    	; 0x15c <__bad_interrupt>
      1e:	00 00       	nop
      20:	9d c0       	rjmp	.+314    	; 0x15c <__bad_interrupt>
      22:	00 00       	nop
      24:	9b c0       	rjmp	.+310    	; 0x15c <__bad_interrupt>
      26:	00 00       	nop
      28:	99 c0       	rjmp	.+306    	; 0x15c <__bad_interrupt>
      2a:	00 00       	nop
      2c:	97 c0       	rjmp	.+302    	; 0x15c <__bad_interrupt>
      2e:	00 00       	nop
      30:	95 c0       	rjmp	.+298    	; 0x15c <__bad_interrupt>
      32:	00 00       	nop
      34:	93 c0       	rjmp	.+294    	; 0x15c <__bad_interrupt>
      36:	00 00       	nop
      38:	91 c0       	rjmp	.+290    	; 0x15c <__bad_interrupt>
      3a:	00 00       	nop
      3c:	8f c0       	rjmp	.+286    	; 0x15c <__bad_interrupt>
      3e:	00 00       	nop
      40:	8d c0       	rjmp	.+282    	; 0x15c <__bad_interrupt>
      42:	00 00       	nop
      44:	8b c0       	rjmp	.+278    	; 0x15c <__bad_interrupt>
      46:	00 00       	nop
      48:	89 c0       	rjmp	.+274    	; 0x15c <__bad_interrupt>
      4a:	00 00       	nop
      4c:	87 c0       	rjmp	.+270    	; 0x15c <__bad_interrupt>
      4e:	00 00       	nop
      50:	85 c0       	rjmp	.+266    	; 0x15c <__bad_interrupt>
      52:	00 00       	nop
      54:	83 c0       	rjmp	.+262    	; 0x15c <__bad_interrupt>
      56:	00 00       	nop
      58:	81 c0       	rjmp	.+258    	; 0x15c <__bad_interrupt>
      5a:	00 00       	nop
      5c:	7f c0       	rjmp	.+254    	; 0x15c <__bad_interrupt>
      5e:	00 00       	nop
      60:	7d c0       	rjmp	.+250    	; 0x15c <__bad_interrupt>
      62:	00 00       	nop
      64:	7b c0       	rjmp	.+246    	; 0x15c <__bad_interrupt>
      66:	00 00       	nop
      68:	79 c0       	rjmp	.+242    	; 0x15c <__bad_interrupt>
      6a:	00 00       	nop
      6c:	77 c0       	rjmp	.+238    	; 0x15c <__bad_interrupt>
      6e:	00 00       	nop
      70:	75 c0       	rjmp	.+234    	; 0x15c <__bad_interrupt>
      72:	00 00       	nop
      74:	73 c0       	rjmp	.+230    	; 0x15c <__bad_interrupt>
      76:	00 00       	nop
      78:	71 c0       	rjmp	.+226    	; 0x15c <__bad_interrupt>
      7a:	00 00       	nop
      7c:	6f c0       	rjmp	.+222    	; 0x15c <__bad_interrupt>
      7e:	00 00       	nop
      80:	6d c0       	rjmp	.+218    	; 0x15c <__bad_interrupt>
      82:	00 00       	nop
      84:	6b c0       	rjmp	.+214    	; 0x15c <__bad_interrupt>
      86:	00 00       	nop
      88:	69 c0       	rjmp	.+210    	; 0x15c <__bad_interrupt>
      8a:	00 00       	nop
      8c:	67 c0       	rjmp	.+206    	; 0x15c <__bad_interrupt>
      8e:	00 00       	nop
      90:	65 c0       	rjmp	.+202    	; 0x15c <__bad_interrupt>
      92:	00 00       	nop
      94:	63 c0       	rjmp	.+198    	; 0x15c <__bad_interrupt>
      96:	00 00       	nop
      98:	61 c0       	rjmp	.+194    	; 0x15c <__bad_interrupt>
      9a:	00 00       	nop
      9c:	5f c0       	rjmp	.+190    	; 0x15c <__bad_interrupt>
      9e:	00 00       	nop
      a0:	5d c0       	rjmp	.+186    	; 0x15c <__bad_interrupt>
      a2:	00 00       	nop
      a4:	5b c0       	rjmp	.+182    	; 0x15c <__bad_interrupt>
      a6:	00 00       	nop
      a8:	59 c0       	rjmp	.+178    	; 0x15c <__bad_interrupt>
      aa:	00 00       	nop
      ac:	57 c0       	rjmp	.+174    	; 0x15c <__bad_interrupt>
      ae:	00 00       	nop
      b0:	55 c0       	rjmp	.+170    	; 0x15c <__bad_interrupt>
      b2:	00 00       	nop
      b4:	53 c0       	rjmp	.+166    	; 0x15c <__bad_interrupt>
      b6:	00 00       	nop
      b8:	51 c0       	rjmp	.+162    	; 0x15c <__bad_interrupt>
      ba:	00 00       	nop
      bc:	4f c0       	rjmp	.+158    	; 0x15c <__bad_interrupt>
      be:	00 00       	nop
      c0:	4d c0       	rjmp	.+154    	; 0x15c <__bad_interrupt>
      c2:	00 00       	nop
      c4:	4b c0       	rjmp	.+150    	; 0x15c <__bad_interrupt>
      c6:	00 00       	nop
      c8:	49 c0       	rjmp	.+146    	; 0x15c <__bad_interrupt>
      ca:	00 00       	nop
      cc:	47 c0       	rjmp	.+142    	; 0x15c <__bad_interrupt>
      ce:	00 00       	nop
      d0:	45 c0       	rjmp	.+138    	; 0x15c <__bad_interrupt>
      d2:	00 00       	nop
      d4:	43 c0       	rjmp	.+134    	; 0x15c <__bad_interrupt>
      d6:	00 00       	nop
      d8:	41 c0       	rjmp	.+130    	; 0x15c <__bad_interrupt>
      da:	00 00       	nop
      dc:	3f c0       	rjmp	.+126    	; 0x15c <__bad_interrupt>
      de:	00 00       	nop
      e0:	3d c0       	rjmp	.+122    	; 0x15c <__bad_interrupt>
      e2:	00 00       	nop
      e4:	3b c0       	rjmp	.+118    	; 0x15c <__bad_interrupt>
      e6:	00 00       	nop
      e8:	39 c0       	rjmp	.+114    	; 0x15c <__bad_interrupt>
      ea:	00 00       	nop
      ec:	37 c0       	rjmp	.+110    	; 0x15c <__bad_interrupt>
      ee:	00 00       	nop
      f0:	35 c0       	rjmp	.+106    	; 0x15c <__bad_interrupt>
      f2:	00 00       	nop
      f4:	33 c0       	rjmp	.+102    	; 0x15c <__bad_interrupt>
      f6:	00 00       	nop
      f8:	31 c0       	rjmp	.+98     	; 0x15c <__bad_interrupt>
      fa:	00 00       	nop
      fc:	2f c0       	rjmp	.+94     	; 0x15c <__bad_interrupt>
      fe:	00 00       	nop
     100:	2d c0       	rjmp	.+90     	; 0x15c <__bad_interrupt>
     102:	00 00       	nop
     104:	2b c0       	rjmp	.+86     	; 0x15c <__bad_interrupt>
     106:	00 00       	nop
     108:	29 c0       	rjmp	.+82     	; 0x15c <__bad_interrupt>
     10a:	00 00       	nop
     10c:	27 c0       	rjmp	.+78     	; 0x15c <__bad_interrupt>
     10e:	00 00       	nop
     110:	25 c0       	rjmp	.+74     	; 0x15c <__bad_interrupt>
     112:	00 00       	nop
     114:	23 c0       	rjmp	.+70     	; 0x15c <__bad_interrupt>
     116:	00 00       	nop
     118:	21 c0       	rjmp	.+66     	; 0x15c <__bad_interrupt>
     11a:	00 00       	nop
     11c:	1f c0       	rjmp	.+62     	; 0x15c <__bad_interrupt>
	...

00000120 <__ctors_end>:
     120:	11 24       	eor	r1, r1
     122:	1f be       	out	0x3f, r1	; 63
     124:	cf ef       	ldi	r28, 0xFF	; 255
     126:	d1 e4       	ldi	r29, 0x41	; 65
     128:	de bf       	out	0x3e, r29	; 62
     12a:	cd bf       	out	0x3d, r28	; 61

0000012c <__do_copy_data>:
     12c:	12 e0       	ldi	r17, 0x02	; 2
     12e:	a0 e0       	ldi	r26, 0x00	; 0
     130:	b2 e0       	ldi	r27, 0x02	; 2
     132:	e2 ee       	ldi	r30, 0xE2	; 226
     134:	f4 e1       	ldi	r31, 0x14	; 20
     136:	00 e0       	ldi	r16, 0x00	; 0
     138:	0b bf       	out	0x3b, r16	; 59
     13a:	02 c0       	rjmp	.+4      	; 0x140 <__do_copy_data+0x14>
     13c:	07 90       	elpm	r0, Z+
     13e:	0d 92       	st	X+, r0
     140:	a8 38       	cpi	r26, 0x88	; 136
     142:	b1 07       	cpc	r27, r17
     144:	d9 f7       	brne	.-10     	; 0x13c <__do_copy_data+0x10>

00000146 <__do_clear_bss>:
     146:	23 e0       	ldi	r18, 0x03	; 3
     148:	a8 e8       	ldi	r26, 0x88	; 136
     14a:	b2 e0       	ldi	r27, 0x02	; 2
     14c:	01 c0       	rjmp	.+2      	; 0x150 <.do_clear_bss_start>

0000014e <.do_clear_bss_loop>:
     14e:	1d 92       	st	X+, r1

00000150 <.do_clear_bss_start>:
     150:	a8 3d       	cpi	r26, 0xD8	; 216
     152:	b2 07       	cpc	r27, r18
     154:	e1 f7       	brne	.-8      	; 0x14e <.do_clear_bss_loop>
     156:	92 d3       	rcall	.+1828   	; 0x87c <main>
     158:	0c 94 6f 0a 	jmp	0x14de	; 0x14de <_exit>

0000015c <__bad_interrupt>:
     15c:	51 cf       	rjmp	.-350    	; 0x0 <__vectors>

0000015e <button_init>:
     15e:	6d 98       	cbi	0x0d, 5	; 13
     160:	75 9a       	sbi	0x0e, 5	; 14
     162:	08 95       	ret

00000164 <button_pressed>:
     164:	81 e0       	ldi	r24, 0x01	; 1
     166:	65 99       	sbic	0x0c, 5	; 12
     168:	80 e0       	ldi	r24, 0x00	; 0
     16a:	08 95       	ret

0000016c <button_released>:
     16c:	fb df       	rcall	.-10     	; 0x164 <button_pressed>
     16e:	91 e0       	ldi	r25, 0x01	; 1
     170:	89 27       	eor	r24, r25
     172:	08 95       	ret

00000174 <hw_timer_cpuf>:
     174:	60 e0       	ldi	r22, 0x00	; 0
     176:	72 e1       	ldi	r23, 0x12	; 18
     178:	8a e7       	ldi	r24, 0x7A	; 122
     17a:	90 e0       	ldi	r25, 0x00	; 0
     17c:	08 95       	ret

0000017e <hw_timer_init>:
     17e:	10 92 80 00 	sts	0x0080, r1
     182:	81 e0       	ldi	r24, 0x01	; 1
     184:	80 93 81 00 	sts	0x0081, r24
     188:	10 92 82 00 	sts	0x0082, r1
     18c:	10 92 85 00 	sts	0x0085, r1
     190:	10 92 84 00 	sts	0x0084, r1
     194:	10 92 6f 00 	sts	0x006F, r1
     198:	08 95       	ret

0000019a <hw_timer_start>:
     19a:	cf 93       	push	r28
     19c:	df 93       	push	r29
     19e:	ec 01       	movw	r28, r24
     1a0:	ee df       	rcall	.-36     	; 0x17e <hw_timer_init>
     1a2:	d0 93 85 00 	sts	0x0085, r29
     1a6:	c0 93 84 00 	sts	0x0084, r28
     1aa:	df 91       	pop	r29
     1ac:	cf 91       	pop	r28
     1ae:	08 95       	ret

000001b0 <hw_timer_overflow>:
     1b0:	81 e0       	ldi	r24, 0x01	; 1
     1b2:	b0 9b       	sbis	0x16, 0	; 22
     1b4:	80 e0       	ldi	r24, 0x00	; 0
     1b6:	88 23       	and	r24, r24
     1b8:	11 f0       	breq	.+4      	; 0x1be <hw_timer_overflow+0xe>
     1ba:	91 e0       	ldi	r25, 0x01	; 1
     1bc:	96 bb       	out	0x16, r25	; 22
     1be:	08 95       	ret

000001c0 <hw_timer_now>:
     1c0:	80 91 84 00 	lds	r24, 0x0084
     1c4:	90 91 85 00 	lds	r25, 0x0085
     1c8:	08 95       	ret

000001ca <hw_timer_now_us>:
     1ca:	cf 92       	push	r12
     1cc:	df 92       	push	r13
     1ce:	ef 92       	push	r14
     1d0:	ff 92       	push	r15
     1d2:	c0 90 84 00 	lds	r12, 0x0084
     1d6:	d0 90 85 00 	lds	r13, 0x0085
     1da:	d6 94       	lsr	r13
     1dc:	c7 94       	ror	r12
     1de:	d6 94       	lsr	r13
     1e0:	c7 94       	ror	r12
     1e2:	d6 94       	lsr	r13
     1e4:	c7 94       	ror	r12
     1e6:	ee 24       	eor	r14, r14
     1e8:	ff 24       	eor	r15, r15
     1ea:	e2 df       	rcall	.-60     	; 0x1b0 <hw_timer_overflow>
     1ec:	88 23       	and	r24, r24
     1ee:	a1 f0       	breq	.+40     	; 0x218 <hw_timer_now_us+0x4e>
     1f0:	80 91 88 02 	lds	r24, 0x0288
     1f4:	90 91 89 02 	lds	r25, 0x0289
     1f8:	a0 91 8a 02 	lds	r26, 0x028A
     1fc:	b0 91 8b 02 	lds	r27, 0x028B
     200:	80 50       	subi	r24, 0x00	; 0
     202:	90 4e       	sbci	r25, 0xE0	; 224
     204:	af 4f       	sbci	r26, 0xFF	; 255
     206:	bf 4f       	sbci	r27, 0xFF	; 255
     208:	80 93 88 02 	sts	0x0288, r24
     20c:	90 93 89 02 	sts	0x0289, r25
     210:	a0 93 8a 02 	sts	0x028A, r26
     214:	b0 93 8b 02 	sts	0x028B, r27
     218:	80 91 88 02 	lds	r24, 0x0288
     21c:	90 91 89 02 	lds	r25, 0x0289
     220:	a0 91 8a 02 	lds	r26, 0x028A
     224:	b0 91 8b 02 	lds	r27, 0x028B
     228:	c8 0e       	add	r12, r24
     22a:	d9 1e       	adc	r13, r25
     22c:	ea 1e       	adc	r14, r26
     22e:	fb 1e       	adc	r15, r27
     230:	6c 2d       	mov	r22, r12
     232:	7d 2d       	mov	r23, r13
     234:	8e 2d       	mov	r24, r14
     236:	9f 2d       	mov	r25, r15
     238:	ff 90       	pop	r15
     23a:	ef 90       	pop	r14
     23c:	df 90       	pop	r13
     23e:	cf 90       	pop	r12
     240:	08 95       	ret

00000242 <hw_timer_wait_micro>:
     242:	8f 92       	push	r8
     244:	9f 92       	push	r9
     246:	af 92       	push	r10
     248:	bf 92       	push	r11
     24a:	cf 92       	push	r12
     24c:	df 92       	push	r13
     24e:	ef 92       	push	r14
     250:	ff 92       	push	r15
     252:	4c 01       	movw	r8, r24
     254:	aa 24       	eor	r10, r10
     256:	bb 24       	eor	r11, r11
     258:	88 0c       	add	r8, r8
     25a:	99 1c       	adc	r9, r9
     25c:	aa 1c       	adc	r10, r10
     25e:	bb 1c       	adc	r11, r11
     260:	88 0c       	add	r8, r8
     262:	99 1c       	adc	r9, r9
     264:	aa 1c       	adc	r10, r10
     266:	bb 1c       	adc	r11, r11
     268:	88 0c       	add	r8, r8
     26a:	99 1c       	adc	r9, r9
     26c:	aa 1c       	adc	r10, r10
     26e:	bb 1c       	adc	r11, r11
     270:	80 e0       	ldi	r24, 0x00	; 0
     272:	88 16       	cp	r8, r24
     274:	80 e0       	ldi	r24, 0x00	; 0
     276:	98 06       	cpc	r9, r24
     278:	81 e0       	ldi	r24, 0x01	; 1
     27a:	a8 06       	cpc	r10, r24
     27c:	80 e0       	ldi	r24, 0x00	; 0
     27e:	b8 06       	cpc	r11, r24
     280:	78 f1       	brcs	.+94     	; 0x2e0 <hw_timer_wait_micro+0x9e>
     282:	75 01       	movw	r14, r10
     284:	64 01       	movw	r12, r8
     286:	80 e0       	ldi	r24, 0x00	; 0
     288:	90 e0       	ldi	r25, 0x00	; 0
     28a:	87 df       	rcall	.-242    	; 0x19a <hw_timer_start>
     28c:	80 e0       	ldi	r24, 0x00	; 0
     28e:	90 e0       	ldi	r25, 0x00	; 0
     290:	af ef       	ldi	r26, 0xFF	; 255
     292:	bf ef       	ldi	r27, 0xFF	; 255
     294:	c8 0e       	add	r12, r24
     296:	d9 1e       	adc	r13, r25
     298:	ea 1e       	adc	r14, r26
     29a:	fb 1e       	adc	r15, r27
     29c:	89 df       	rcall	.-238    	; 0x1b0 <hw_timer_overflow>
     29e:	88 23       	and	r24, r24
     2a0:	e9 f3       	breq	.-6      	; 0x29c <hw_timer_wait_micro+0x5a>
     2a2:	90 e0       	ldi	r25, 0x00	; 0
     2a4:	c9 16       	cp	r12, r25
     2a6:	90 e0       	ldi	r25, 0x00	; 0
     2a8:	d9 06       	cpc	r13, r25
     2aa:	91 e0       	ldi	r25, 0x01	; 1
     2ac:	e9 06       	cpc	r14, r25
     2ae:	90 e0       	ldi	r25, 0x00	; 0
     2b0:	f9 06       	cpc	r15, r25
     2b2:	48 f7       	brcc	.-46     	; 0x286 <hw_timer_wait_micro+0x44>
     2b4:	80 e0       	ldi	r24, 0x00	; 0
     2b6:	90 e0       	ldi	r25, 0x00	; 0
     2b8:	af ef       	ldi	r26, 0xFF	; 255
     2ba:	bf ef       	ldi	r27, 0xFF	; 255
     2bc:	88 0e       	add	r8, r24
     2be:	99 1e       	adc	r9, r25
     2c0:	aa 1e       	adc	r10, r26
     2c2:	bb 1e       	adc	r11, r27
     2c4:	b5 01       	movw	r22, r10
     2c6:	88 27       	eor	r24, r24
     2c8:	99 27       	eor	r25, r25
     2ca:	20 e0       	ldi	r18, 0x00	; 0
     2cc:	30 e0       	ldi	r19, 0x00	; 0
     2ce:	4f ef       	ldi	r20, 0xFF	; 255
     2d0:	5f ef       	ldi	r21, 0xFF	; 255
     2d2:	f9 d4       	rcall	.+2546   	; 0xcc6 <__mulsi3>
     2d4:	dc 01       	movw	r26, r24
     2d6:	cb 01       	movw	r24, r22
     2d8:	88 0e       	add	r8, r24
     2da:	99 1e       	adc	r9, r25
     2dc:	aa 1e       	adc	r10, r26
     2de:	bb 1e       	adc	r11, r27
     2e0:	c4 01       	movw	r24, r8
     2e2:	80 95       	com	r24
     2e4:	90 95       	com	r25
     2e6:	59 df       	rcall	.-334    	; 0x19a <hw_timer_start>
     2e8:	63 df       	rcall	.-314    	; 0x1b0 <hw_timer_overflow>
     2ea:	88 23       	and	r24, r24
     2ec:	e9 f3       	breq	.-6      	; 0x2e8 <hw_timer_wait_micro+0xa6>
     2ee:	ff 90       	pop	r15
     2f0:	ef 90       	pop	r14
     2f2:	df 90       	pop	r13
     2f4:	cf 90       	pop	r12
     2f6:	bf 90       	pop	r11
     2f8:	af 90       	pop	r10
     2fa:	9f 90       	pop	r9
     2fc:	8f 90       	pop	r8
     2fe:	08 95       	ret

00000300 <hw_timer_wait_milli>:
     300:	cf 93       	push	r28
     302:	df 93       	push	r29
     304:	ec 01       	movw	r28, r24
     306:	82 34       	cpi	r24, 0x42	; 66
     308:	91 05       	cpc	r25, r1
     30a:	40 f0       	brcs	.+16     	; 0x31c <hw_timer_wait_milli+0x1c>
     30c:	88 ee       	ldi	r24, 0xE8	; 232
     30e:	9d ef       	ldi	r25, 0xFD	; 253
     310:	98 df       	rcall	.-208    	; 0x242 <hw_timer_wait_micro>
     312:	c1 54       	subi	r28, 0x41	; 65
     314:	d0 40       	sbci	r29, 0x00	; 0
     316:	c2 34       	cpi	r28, 0x42	; 66
     318:	d1 05       	cpc	r29, r1
     31a:	c0 f7       	brcc	.-16     	; 0x30c <hw_timer_wait_milli+0xc>
     31c:	ce 01       	movw	r24, r28
     31e:	91 df       	rcall	.-222    	; 0x242 <hw_timer_wait_micro>
     320:	df 91       	pop	r29
     322:	cf 91       	pop	r28
     324:	08 95       	ret

00000326 <leds_init>:
     326:	6a 9a       	sbi	0x0d, 2	; 13
     328:	6b 9a       	sbi	0x0d, 3	; 13
     32a:	6c 9a       	sbi	0x0d, 4	; 13
     32c:	72 9a       	sbi	0x0e, 2	; 14
     32e:	73 9a       	sbi	0x0e, 3	; 14
     330:	74 9a       	sbi	0x0e, 4	; 14
     332:	08 95       	ret

00000334 <leds_on>:
     334:	81 30       	cpi	r24, 0x01	; 1
     336:	11 f4       	brne	.+4      	; 0x33c <leds_on+0x8>
     338:	72 98       	cbi	0x0e, 2	; 14
     33a:	08 95       	ret
     33c:	82 30       	cpi	r24, 0x02	; 2
     33e:	11 f4       	brne	.+4      	; 0x344 <leds_on+0x10>
     340:	73 98       	cbi	0x0e, 3	; 14
     342:	08 95       	ret
     344:	83 30       	cpi	r24, 0x03	; 3
     346:	09 f4       	brne	.+2      	; 0x34a <leds_on+0x16>
     348:	74 98       	cbi	0x0e, 4	; 14
     34a:	08 95       	ret

0000034c <leds_off>:
     34c:	81 30       	cpi	r24, 0x01	; 1
     34e:	11 f4       	brne	.+4      	; 0x354 <leds_off+0x8>
     350:	72 9a       	sbi	0x0e, 2	; 14
     352:	08 95       	ret
     354:	82 30       	cpi	r24, 0x02	; 2
     356:	11 f4       	brne	.+4      	; 0x35c <leds_off+0x10>
     358:	73 9a       	sbi	0x0e, 3	; 14
     35a:	08 95       	ret
     35c:	83 30       	cpi	r24, 0x03	; 3
     35e:	09 f4       	brne	.+2      	; 0x362 <leds_off+0x16>
     360:	74 9a       	sbi	0x0e, 4	; 14
     362:	08 95       	ret

00000364 <radio_init>:
     364:	ff 92       	push	r15
     366:	0f 93       	push	r16
     368:	1f 93       	push	r17
     36a:	cf 93       	push	r28
     36c:	df 93       	push	r29
     36e:	08 2f       	mov	r16, r24
     370:	19 2f       	mov	r17, r25
     372:	f6 2e       	mov	r15, r22
     374:	c9 e3       	ldi	r28, 0x39	; 57
     376:	d1 e0       	ldi	r29, 0x01	; 1
     378:	18 82       	st	Y, r1
     37a:	86 e0       	ldi	r24, 0x06	; 6
     37c:	90 e0       	ldi	r25, 0x00	; 0
     37e:	61 df       	rcall	.-318    	; 0x242 <hw_timer_wait_micro>
     380:	81 e0       	ldi	r24, 0x01	; 1
     382:	88 83       	st	Y, r24
     384:	80 91 41 01 	lds	r24, 0x0141
     388:	80 93 8c 02 	sts	0x028C, r24
     38c:	88 23       	and	r24, r24
     38e:	51 f4       	brne	.+20     	; 0x3a4 <radio_init+0x40>
     390:	88 e0       	ldi	r24, 0x08	; 8
     392:	80 93 42 01 	sts	0x0142, r24
     396:	8e ef       	ldi	r24, 0xFE	; 254
     398:	91 e0       	ldi	r25, 0x01	; 1
     39a:	53 df       	rcall	.-346    	; 0x242 <hw_timer_wait_micro>
     39c:	80 91 41 01 	lds	r24, 0x0141
     3a0:	80 93 8c 02 	sts	0x028C, r24
     3a4:	8b e0       	ldi	r24, 0x0B	; 11
     3a6:	80 93 48 01 	sts	0x0148, r24
     3aa:	8f ef       	ldi	r24, 0xFF	; 255
     3ac:	80 93 4f 01 	sts	0x014F, r24
     3b0:	00 93 8d 02 	sts	0x028D, r16
     3b4:	10 93 8e 02 	sts	0x028E, r17
     3b8:	00 93 60 01 	sts	0x0160, r16
     3bc:	10 93 61 01 	sts	0x0161, r17
     3c0:	10 92 62 01 	sts	0x0162, r1
     3c4:	10 92 63 01 	sts	0x0163, r1
     3c8:	80 91 41 01 	lds	r24, 0x0141
     3cc:	80 93 8c 02 	sts	0x028C, r24
     3d0:	f0 92 8f 02 	sts	0x028F, r15
     3d4:	df 91       	pop	r29
     3d6:	cf 91       	pop	r28
     3d8:	1f 91       	pop	r17
     3da:	0f 91       	pop	r16
     3dc:	ff 90       	pop	r15
     3de:	08 95       	ret

000003e0 <radio_start>:
     3e0:	8f ef       	ldi	r24, 0xFF	; 255
     3e2:	80 93 4f 01 	sts	0x014F, r24
     3e6:	86 e0       	ldi	r24, 0x06	; 6
     3e8:	80 93 42 01 	sts	0x0142, r24
     3ec:	e1 e4       	ldi	r30, 0x41	; 65
     3ee:	f1 e0       	ldi	r31, 0x01	; 1
     3f0:	80 81       	ld	r24, Z
     3f2:	8f 71       	andi	r24, 0x1F	; 31
     3f4:	86 30       	cpi	r24, 0x06	; 6
     3f6:	e1 f7       	brne	.-8      	; 0x3f0 <radio_start+0x10>
     3f8:	ec e4       	ldi	r30, 0x4C	; 76
     3fa:	f1 e0       	ldi	r31, 0x01	; 1
     3fc:	80 81       	ld	r24, Z
     3fe:	80 68       	ori	r24, 0x80	; 128
     400:	80 83       	st	Z, r24
     402:	08 95       	ret

00000404 <radio_tx_done>:
     404:	80 91 90 02 	lds	r24, 0x0290
     408:	10 92 90 02 	sts	0x0290, r1
     40c:	08 95       	ret

0000040e <radio_send>:
     40e:	2f ef       	ldi	r18, 0xFF	; 255
     410:	20 93 4f 01 	sts	0x014F, r18
     414:	20 91 41 01 	lds	r18, 0x0141
     418:	2f 71       	andi	r18, 0x1F	; 31
     41a:	29 30       	cpi	r18, 0x09	; 9
     41c:	41 f0       	breq	.+16     	; 0x42e <radio_send+0x20>
     41e:	29 e0       	ldi	r18, 0x09	; 9
     420:	20 93 42 01 	sts	0x0142, r18
     424:	e1 e4       	ldi	r30, 0x41	; 65
     426:	f1 e0       	ldi	r31, 0x01	; 1
     428:	20 81       	ld	r18, Z
     42a:	29 30       	cpi	r18, 0x09	; 9
     42c:	e9 f7       	brne	.-6      	; 0x428 <radio_send+0x1a>
     42e:	26 2f       	mov	r18, r22
     430:	23 5f       	subi	r18, 0xF3	; 243
     432:	20 93 80 01 	sts	0x0180, r18
     436:	20 e2       	ldi	r18, 0x20	; 32
     438:	20 93 81 01 	sts	0x0181, r18
     43c:	22 e2       	ldi	r18, 0x22	; 34
     43e:	20 93 82 01 	sts	0x0182, r18
     442:	21 e0       	ldi	r18, 0x01	; 1
     444:	20 93 83 01 	sts	0x0183, r18
     448:	10 92 84 01 	sts	0x0184, r1
     44c:	10 92 85 01 	sts	0x0185, r1
     450:	50 93 86 01 	sts	0x0186, r21
     454:	40 93 87 01 	sts	0x0187, r20
     458:	10 92 88 01 	sts	0x0188, r1
     45c:	10 92 89 01 	sts	0x0189, r1
     460:	20 91 8e 02 	lds	r18, 0x028E
     464:	20 93 8a 01 	sts	0x018A, r18
     468:	20 91 8d 02 	lds	r18, 0x028D
     46c:	20 93 8b 01 	sts	0x018B, r18
     470:	66 23       	and	r22, r22
     472:	91 f0       	breq	.+36     	; 0x498 <radio_send+0x8a>
     474:	a8 2f       	mov	r26, r24
     476:	b9 2f       	mov	r27, r25
     478:	61 50       	subi	r22, 0x01	; 1
     47a:	70 e0       	ldi	r23, 0x00	; 0
     47c:	cb 01       	movw	r24, r22
     47e:	83 57       	subi	r24, 0x73	; 115
     480:	9e 4f       	sbci	r25, 0xFE	; 254
     482:	ec e8       	ldi	r30, 0x8C	; 140
     484:	f1 e0       	ldi	r31, 0x01	; 1
     486:	2d 91       	ld	r18, X+
     488:	21 93       	st	Z+, r18
     48a:	e8 17       	cp	r30, r24
     48c:	f9 07       	cpc	r31, r25
     48e:	d9 f7       	brne	.-10     	; 0x486 <radio_send+0x78>
     490:	fb 01       	movw	r30, r22
     492:	e3 57       	subi	r30, 0x73	; 115
     494:	fe 4f       	sbci	r31, 0xFE	; 254
     496:	02 c0       	rjmp	.+4      	; 0x49c <radio_send+0x8e>
     498:	ec e8       	ldi	r30, 0x8C	; 140
     49a:	f1 e0       	ldi	r31, 0x01	; 1
     49c:	10 82       	st	Z, r1
     49e:	11 82       	std	Z+1, r1	; 0x01
     4a0:	82 e0       	ldi	r24, 0x02	; 2
     4a2:	80 93 42 01 	sts	0x0142, r24
     4a6:	ef e4       	ldi	r30, 0x4F	; 79
     4a8:	f1 e0       	ldi	r31, 0x01	; 1
     4aa:	80 81       	ld	r24, Z
     4ac:	86 ff       	sbrs	r24, 6
     4ae:	fd cf       	rjmp	.-6      	; 0x4aa <radio_send+0x9c>
     4b0:	8f ef       	ldi	r24, 0xFF	; 255
     4b2:	80 93 4f 01 	sts	0x014F, r24
     4b6:	86 e0       	ldi	r24, 0x06	; 6
     4b8:	80 93 42 01 	sts	0x0142, r24
     4bc:	e1 e4       	ldi	r30, 0x41	; 65
     4be:	f1 e0       	ldi	r31, 0x01	; 1
     4c0:	80 81       	ld	r24, Z
     4c2:	8f 71       	andi	r24, 0x1F	; 31
     4c4:	86 30       	cpi	r24, 0x06	; 6
     4c6:	e1 f7       	brne	.-8      	; 0x4c0 <radio_send+0xb2>
     4c8:	81 e0       	ldi	r24, 0x01	; 1
     4ca:	80 93 90 02 	sts	0x0290, r24
     4ce:	80 91 41 01 	lds	r24, 0x0141
     4d2:	80 93 8c 02 	sts	0x028C, r24
     4d6:	08 95       	ret

000004d8 <radio_rxed>:
     4d8:	90 91 4f 01 	lds	r25, 0x014F
     4dc:	81 e0       	ldi	r24, 0x01	; 1
     4de:	93 ff       	sbrs	r25, 3
     4e0:	80 e0       	ldi	r24, 0x00	; 0
     4e2:	08 95       	ret

000004e4 <radio_recv>:
     4e4:	8f 92       	push	r8
     4e6:	9f 92       	push	r9
     4e8:	af 92       	push	r10
     4ea:	bf 92       	push	r11
     4ec:	cf 92       	push	r12
     4ee:	df 92       	push	r13
     4f0:	ef 92       	push	r14
     4f2:	ff 92       	push	r15
     4f4:	0f 93       	push	r16
     4f6:	1f 93       	push	r17
     4f8:	cf 93       	push	r28
     4fa:	78 2f       	mov	r23, r24
     4fc:	c9 2f       	mov	r28, r25
     4fe:	5a 01       	movw	r10, r20
     500:	49 01       	movw	r8, r18
     502:	40 91 7b 01 	lds	r20, 0x017B
     506:	8f ef       	ldi	r24, 0xFF	; 255
     508:	80 93 00 02 	sts	0x0200, r24
     50c:	ef e4       	ldi	r30, 0x4F	; 79
     50e:	f1 e0       	ldi	r31, 0x01	; 1
     510:	80 81       	ld	r24, Z
     512:	82 ff       	sbrs	r24, 2
     514:	fd cf       	rjmp	.-6      	; 0x510 <radio_recv+0x2c>
     516:	0c c0       	rjmp	.+24     	; 0x530 <radio_recv+0x4c>
     518:	80 81       	ld	r24, Z
     51a:	90 e0       	ldi	r25, 0x00	; 0
     51c:	8f 71       	andi	r24, 0x1F	; 31
     51e:	90 70       	andi	r25, 0x00	; 0
     520:	28 17       	cp	r18, r24
     522:	39 07       	cpc	r19, r25
     524:	64 f4       	brge	.+24     	; 0x53e <radio_recv+0x5a>
     526:	80 81       	ld	r24, Z
     528:	8f 71       	andi	r24, 0x1F	; 31
     52a:	80 93 00 02 	sts	0x0200, r24
     52e:	04 c0       	rjmp	.+8      	; 0x538 <radio_recv+0x54>
     530:	af e4       	ldi	r26, 0x4F	; 79
     532:	b1 e0       	ldi	r27, 0x01	; 1
     534:	e6 e4       	ldi	r30, 0x46	; 70
     536:	f1 e0       	ldi	r31, 0x01	; 1
     538:	20 91 00 02 	lds	r18, 0x0200
     53c:	30 e0       	ldi	r19, 0x00	; 0
     53e:	8c 91       	ld	r24, X
     540:	83 ff       	sbrs	r24, 3
     542:	ea cf       	rjmp	.-44     	; 0x518 <radio_recv+0x34>
     544:	84 2f       	mov	r24, r20
     546:	8b 50       	subi	r24, 0x0B	; 11
     548:	46 2f       	mov	r20, r22
     54a:	86 17       	cp	r24, r22
     54c:	08 f4       	brcc	.+2      	; 0x550 <radio_recv+0x6c>
     54e:	48 2f       	mov	r20, r24
     550:	30 91 85 01 	lds	r19, 0x0185
     554:	20 e0       	ldi	r18, 0x00	; 0
     556:	80 91 86 01 	lds	r24, 0x0186
     55a:	90 e0       	ldi	r25, 0x00	; 0
     55c:	82 2b       	or	r24, r18
     55e:	93 2b       	or	r25, r19
     560:	f5 01       	movw	r30, r10
     562:	91 83       	std	Z+1, r25	; 0x01
     564:	80 83       	st	Z, r24
     566:	30 91 89 01 	lds	r19, 0x0189
     56a:	20 e0       	ldi	r18, 0x00	; 0
     56c:	80 91 8a 01 	lds	r24, 0x018A
     570:	90 e0       	ldi	r25, 0x00	; 0
     572:	82 2b       	or	r24, r18
     574:	93 2b       	or	r25, r19
     576:	f4 01       	movw	r30, r8
     578:	91 83       	std	Z+1, r25	; 0x01
     57a:	80 83       	st	Z, r24
     57c:	44 23       	and	r20, r20
     57e:	99 f0       	breq	.+38     	; 0x5a6 <radio_recv+0xc2>
     580:	a7 2f       	mov	r26, r23
     582:	bc 2f       	mov	r27, r28
     584:	24 2f       	mov	r18, r20
     586:	21 50       	subi	r18, 0x01	; 1
     588:	30 e0       	ldi	r19, 0x00	; 0
     58a:	c9 01       	movw	r24, r18
     58c:	84 57       	subi	r24, 0x74	; 116
     58e:	9e 4f       	sbci	r25, 0xFE	; 254
     590:	eb e8       	ldi	r30, 0x8B	; 139
     592:	f1 e0       	ldi	r31, 0x01	; 1
     594:	51 91       	ld	r21, Z+
     596:	5d 93       	st	X+, r21
     598:	e8 17       	cp	r30, r24
     59a:	f9 07       	cpc	r31, r25
     59c:	d9 f7       	brne	.-10     	; 0x594 <radio_recv+0xb0>
     59e:	f9 01       	movw	r30, r18
     5a0:	e4 57       	subi	r30, 0x74	; 116
     5a2:	fe 4f       	sbci	r31, 0xFE	; 254
     5a4:	02 c0       	rjmp	.+4      	; 0x5aa <radio_recv+0xc6>
     5a6:	eb e8       	ldi	r30, 0x8B	; 139
     5a8:	f1 e0       	ldi	r31, 0x01	; 1
     5aa:	80 81       	ld	r24, Z
     5ac:	80 93 91 02 	sts	0x0291, r24
     5b0:	f6 01       	movw	r30, r12
     5b2:	80 83       	st	Z, r24
     5b4:	80 91 47 01 	lds	r24, 0x0147
     5b8:	80 93 92 02 	sts	0x0292, r24
     5bc:	f7 01       	movw	r30, r14
     5be:	80 83       	st	Z, r24
     5c0:	80 91 46 01 	lds	r24, 0x0146
     5c4:	88 1f       	adc	r24, r24
     5c6:	88 27       	eor	r24, r24
     5c8:	88 1f       	adc	r24, r24
     5ca:	f8 01       	movw	r30, r16
     5cc:	80 83       	st	Z, r24
     5ce:	e1 e4       	ldi	r30, 0x41	; 65
     5d0:	f1 e0       	ldi	r31, 0x01	; 1
     5d2:	80 81       	ld	r24, Z
     5d4:	8f 71       	andi	r24, 0x1F	; 31
     5d6:	86 30       	cpi	r24, 0x06	; 6
     5d8:	e1 f7       	brne	.-8      	; 0x5d2 <radio_recv+0xee>
     5da:	ec e4       	ldi	r30, 0x4C	; 76
     5dc:	f1 e0       	ldi	r31, 0x01	; 1
     5de:	80 81       	ld	r24, Z
     5e0:	8f 77       	andi	r24, 0x7F	; 127
     5e2:	80 83       	st	Z, r24
     5e4:	80 81       	ld	r24, Z
     5e6:	80 68       	ori	r24, 0x80	; 128
     5e8:	80 83       	st	Z, r24
     5ea:	8f ef       	ldi	r24, 0xFF	; 255
     5ec:	80 93 4f 01 	sts	0x014F, r24
     5f0:	80 91 41 01 	lds	r24, 0x0141
     5f4:	80 93 8c 02 	sts	0x028C, r24
     5f8:	84 2f       	mov	r24, r20
     5fa:	82 50       	subi	r24, 0x02	; 2
     5fc:	cf 91       	pop	r28
     5fe:	1f 91       	pop	r17
     600:	0f 91       	pop	r16
     602:	ff 90       	pop	r15
     604:	ef 90       	pop	r14
     606:	df 90       	pop	r13
     608:	cf 90       	pop	r12
     60a:	bf 90       	pop	r11
     60c:	af 90       	pop	r10
     60e:	9f 90       	pop	r9
     610:	8f 90       	pop	r8
     612:	08 95       	ret

00000614 <radio_set_power>:
     614:	e5 e4       	ldi	r30, 0x45	; 69
     616:	f1 e0       	ldi	r31, 0x01	; 1
     618:	90 81       	ld	r25, Z
     61a:	8f 70       	andi	r24, 0x0F	; 15
     61c:	90 7f       	andi	r25, 0xF0	; 240
     61e:	98 2b       	or	r25, r24
     620:	90 83       	st	Z, r25
     622:	08 95       	ret

00000624 <radio_rssi>:
     624:	80 91 46 01 	lds	r24, 0x0146
     628:	8f 71       	andi	r24, 0x1F	; 31
     62a:	90 91 00 02 	lds	r25, 0x0200
     62e:	98 17       	cp	r25, r24
     630:	10 f4       	brcc	.+4      	; 0x636 <radio_rssi+0x12>
     632:	80 93 00 02 	sts	0x0200, r24
     636:	08 95       	ret

00000638 <radio_max_rssi>:
     638:	80 91 00 02 	lds	r24, 0x0200
     63c:	10 92 00 02 	sts	0x0200, r1
     640:	08 95       	ret

00000642 <radio_latest_energy>:
     642:	80 91 92 02 	lds	r24, 0x0292
     646:	08 95       	ret

00000648 <radio_latest_lqi>:
     648:	80 91 91 02 	lds	r24, 0x0291
     64c:	08 95       	ret

0000064e <radio_rx_all>:
     64e:	80 91 8f 02 	lds	r24, 0x028F
     652:	08 95       	ret

00000654 <radio_getid>:
     654:	80 91 8d 02 	lds	r24, 0x028D
     658:	90 91 8e 02 	lds	r25, 0x028E
     65c:	08 95       	ret

0000065e <serial_init>:
     65e:	4f 92       	push	r4
     660:	5f 92       	push	r5
     662:	6f 92       	push	r6
     664:	7f 92       	push	r7
     666:	8f 92       	push	r8
     668:	9f 92       	push	r9
     66a:	af 92       	push	r10
     66c:	bf 92       	push	r11
     66e:	cf 92       	push	r12
     670:	df 92       	push	r13
     672:	ef 92       	push	r14
     674:	ff 92       	push	r15
     676:	4b 01       	movw	r8, r22
     678:	5c 01       	movw	r10, r24
     67a:	7c dd       	rcall	.-1288   	; 0x174 <hw_timer_cpuf>
     67c:	2b 01       	movw	r4, r22
     67e:	3c 01       	movw	r6, r24
     680:	68 94       	set
     682:	13 f8       	bld	r1, 3
     684:	76 94       	lsr	r7
     686:	67 94       	ror	r6
     688:	57 94       	ror	r5
     68a:	47 94       	ror	r4
     68c:	16 94       	lsr	r1
     68e:	d1 f7       	brne	.-12     	; 0x684 <serial_init+0x26>
     690:	0f 2e       	mov	r0, r31
     692:	fa e0       	ldi	r31, 0x0A	; 10
     694:	cf 2e       	mov	r12, r31
     696:	f0 e0       	ldi	r31, 0x00	; 0
     698:	df 2e       	mov	r13, r31
     69a:	f0 e0       	ldi	r31, 0x00	; 0
     69c:	ef 2e       	mov	r14, r31
     69e:	f0 e0       	ldi	r31, 0x00	; 0
     6a0:	ff 2e       	mov	r15, r31
     6a2:	f0 2d       	mov	r31, r0
     6a4:	c5 01       	movw	r24, r10
     6a6:	b4 01       	movw	r22, r8
     6a8:	a7 01       	movw	r20, r14
     6aa:	96 01       	movw	r18, r12
     6ac:	1b d3       	rcall	.+1590   	; 0xce4 <__udivmodsi4>
     6ae:	c3 01       	movw	r24, r6
     6b0:	b2 01       	movw	r22, r4
     6b2:	18 d3       	rcall	.+1584   	; 0xce4 <__udivmodsi4>
     6b4:	ca 01       	movw	r24, r20
     6b6:	b9 01       	movw	r22, r18
     6b8:	6b 5f       	subi	r22, 0xFB	; 251
     6ba:	7f 4f       	sbci	r23, 0xFF	; 255
     6bc:	8f 4f       	sbci	r24, 0xFF	; 255
     6be:	9f 4f       	sbci	r25, 0xFF	; 255
     6c0:	a7 01       	movw	r20, r14
     6c2:	96 01       	movw	r18, r12
     6c4:	0f d3       	rcall	.+1566   	; 0xce4 <__udivmodsi4>
     6c6:	da 01       	movw	r26, r20
     6c8:	c9 01       	movw	r24, r18
     6ca:	01 97       	sbiw	r24, 0x01	; 1
     6cc:	a1 09       	sbc	r26, r1
     6ce:	b1 09       	sbc	r27, r1
     6d0:	e1 ec       	ldi	r30, 0xC1	; 193
     6d2:	f0 e0       	ldi	r31, 0x00	; 0
     6d4:	10 82       	st	Z, r1
     6d6:	10 92 c0 00 	sts	0x00C0, r1
     6da:	26 e0       	ldi	r18, 0x06	; 6
     6dc:	20 93 c2 00 	sts	0x00C2, r18
     6e0:	29 2f       	mov	r18, r25
     6e2:	2f 70       	andi	r18, 0x0F	; 15
     6e4:	20 93 c5 00 	sts	0x00C5, r18
     6e8:	80 93 c4 00 	sts	0x00C4, r24
     6ec:	88 e1       	ldi	r24, 0x18	; 24
     6ee:	80 83       	st	Z, r24
     6f0:	81 e0       	ldi	r24, 0x01	; 1
     6f2:	92 e0       	ldi	r25, 0x02	; 2
     6f4:	90 93 d5 03 	sts	0x03D5, r25
     6f8:	80 93 d4 03 	sts	0x03D4, r24
     6fc:	e4 ed       	ldi	r30, 0xD4	; 212
     6fe:	f3 e0       	ldi	r31, 0x03	; 3
     700:	92 93       	st	-Z, r25
     702:	82 93       	st	-Z, r24
     704:	95 83       	std	Z+5, r25	; 0x05
     706:	84 83       	std	Z+4, r24	; 0x04
     708:	81 e0       	ldi	r24, 0x01	; 1
     70a:	80 93 93 02 	sts	0x0293, r24
     70e:	ff 90       	pop	r15
     710:	ef 90       	pop	r14
     712:	df 90       	pop	r13
     714:	cf 90       	pop	r12
     716:	bf 90       	pop	r11
     718:	af 90       	pop	r10
     71a:	9f 90       	pop	r9
     71c:	8f 90       	pop	r8
     71e:	7f 90       	pop	r7
     720:	6f 90       	pop	r6
     722:	5f 90       	pop	r5
     724:	4f 90       	pop	r4
     726:	08 95       	ret

00000728 <serial_is_init>:
     728:	80 91 93 02 	lds	r24, 0x0293
     72c:	08 95       	ret

0000072e <serial_put>:
     72e:	e0 ec       	ldi	r30, 0xC0	; 192
     730:	f0 e0       	ldi	r31, 0x00	; 0
     732:	90 81       	ld	r25, Z
     734:	95 ff       	sbrs	r25, 5
     736:	fd cf       	rjmp	.-6      	; 0x732 <serial_put+0x4>
     738:	80 93 c6 00 	sts	0x00C6, r24
     73c:	08 95       	ret

0000073e <write>:
     73e:	cf 93       	push	r28
     740:	c8 2f       	mov	r28, r24
     742:	f5 df       	rcall	.-22     	; 0x72e <serial_put>
     744:	8c 2f       	mov	r24, r28
     746:	90 e0       	ldi	r25, 0x00	; 0
     748:	cf 91       	pop	r28
     74a:	08 95       	ret

0000074c <serial_puts>:
     74c:	cf 93       	push	r28
     74e:	df 93       	push	r29
     750:	ec 01       	movw	r28, r24
     752:	88 81       	ld	r24, Y
     754:	88 23       	and	r24, r24
     756:	29 f0       	breq	.+10     	; 0x762 <serial_puts+0x16>
     758:	21 96       	adiw	r28, 0x01	; 1
     75a:	e9 df       	rcall	.-46     	; 0x72e <serial_put>
     75c:	89 91       	ld	r24, Y+
     75e:	88 23       	and	r24, r24
     760:	e1 f7       	brne	.-8      	; 0x75a <serial_puts+0xe>
     762:	df 91       	pop	r29
     764:	cf 91       	pop	r28
     766:	08 95       	ret

00000768 <serial_ready>:
     768:	80 91 c0 00 	lds	r24, 0x00C0
     76c:	88 1f       	adc	r24, r24
     76e:	88 27       	eor	r24, r24
     770:	88 1f       	adc	r24, r24
     772:	08 95       	ret

00000774 <serial_get>:
     774:	f9 df       	rcall	.-14     	; 0x768 <serial_ready>
     776:	88 23       	and	r24, r24
     778:	e9 f3       	breq	.-6      	; 0x774 <serial_get>
     77a:	80 91 c6 00 	lds	r24, 0x00C6
     77e:	08 95       	ret

00000780 <read>:
     780:	cf 93       	push	r28
     782:	f8 df       	rcall	.-16     	; 0x774 <serial_get>
     784:	c8 2f       	mov	r28, r24
     786:	d3 df       	rcall	.-90     	; 0x72e <serial_put>
     788:	8c 2f       	mov	r24, r28
     78a:	90 e0       	ldi	r25, 0x00	; 0
     78c:	cf 91       	pop	r28
     78e:	08 95       	ret

00000790 <os_timer_add>:
     790:	bc 01       	movw	r22, r24
     792:	40 91 99 02 	lds	r20, 0x0299
     796:	50 91 9a 02 	lds	r21, 0x029A
     79a:	48 17       	cp	r20, r24
     79c:	59 07       	cpc	r21, r25
     79e:	41 f1       	breq	.+80     	; 0x7f0 <os_timer_add+0x60>
     7a0:	ab e9       	ldi	r26, 0x9B	; 155
     7a2:	b2 e0       	ldi	r27, 0x02	; 2
     7a4:	9d 01       	movw	r18, r26
     7a6:	2e 5e       	subi	r18, 0xEE	; 238
     7a8:	3f 4f       	sbci	r19, 0xFF	; 255
     7aa:	fd 01       	movw	r30, r26
     7ac:	81 91       	ld	r24, Z+
     7ae:	91 91       	ld	r25, Z+
     7b0:	86 17       	cp	r24, r22
     7b2:	97 07       	cpc	r25, r23
     7b4:	e9 f0       	breq	.+58     	; 0x7f0 <os_timer_add+0x60>
     7b6:	e2 17       	cp	r30, r18
     7b8:	f3 07       	cpc	r31, r19
     7ba:	c1 f7       	brne	.-16     	; 0x7ac <os_timer_add+0x1c>
     7bc:	41 15       	cp	r20, r1
     7be:	51 05       	cpc	r21, r1
     7c0:	41 f0       	breq	.+16     	; 0x7d2 <os_timer_add+0x42>
     7c2:	21 e0       	ldi	r18, 0x01	; 1
     7c4:	30 e0       	ldi	r19, 0x00	; 0
     7c6:	a9 01       	movw	r20, r18
     7c8:	8d 91       	ld	r24, X+
     7ca:	9d 91       	ld	r25, X+
     7cc:	00 97       	sbiw	r24, 0x00	; 0
     7ce:	59 f4       	brne	.+22     	; 0x7e6 <os_timer_add+0x56>
     7d0:	02 c0       	rjmp	.+4      	; 0x7d6 <os_timer_add+0x46>
     7d2:	40 e0       	ldi	r20, 0x00	; 0
     7d4:	50 e0       	ldi	r21, 0x00	; 0
     7d6:	fa 01       	movw	r30, r20
     7d8:	ee 0f       	add	r30, r30
     7da:	ff 1f       	adc	r31, r31
     7dc:	e7 56       	subi	r30, 0x67	; 103
     7de:	fd 4f       	sbci	r31, 0xFD	; 253
     7e0:	71 83       	std	Z+1, r23	; 0x01
     7e2:	60 83       	st	Z, r22
     7e4:	08 95       	ret
     7e6:	2f 5f       	subi	r18, 0xFF	; 255
     7e8:	3f 4f       	sbci	r19, 0xFF	; 255
     7ea:	2a 30       	cpi	r18, 0x0A	; 10
     7ec:	31 05       	cpc	r19, r1
     7ee:	59 f7       	brne	.-42     	; 0x7c6 <os_timer_add+0x36>
     7f0:	08 95       	ret

000007f2 <os_timer_tick>:
     7f2:	fc 01       	movw	r30, r24
     7f4:	00 97       	sbiw	r24, 0x00	; 0
     7f6:	29 f1       	breq	.+74     	; 0x842 <os_timer_tick+0x50>
     7f8:	80 81       	ld	r24, Z
     7fa:	88 23       	and	r24, r24
     7fc:	11 f1       	breq	.+68     	; 0x842 <os_timer_tick+0x50>
     7fe:	80 85       	ldd	r24, Z+8	; 0x08
     800:	91 85       	ldd	r25, Z+9	; 0x09
     802:	00 97       	sbiw	r24, 0x00	; 0
     804:	f1 f0       	breq	.+60     	; 0x842 <os_timer_tick+0x50>
     806:	66 23       	and	r22, r22
     808:	39 f0       	breq	.+14     	; 0x818 <os_timer_tick+0x26>
     80a:	22 81       	ldd	r18, Z+2	; 0x02
     80c:	21 30       	cpi	r18, 0x01	; 1
     80e:	c9 f4       	brne	.+50     	; 0x842 <os_timer_tick+0x50>
     810:	01 97       	sbiw	r24, 0x01	; 1
     812:	91 87       	std	Z+9, r25	; 0x09
     814:	80 87       	std	Z+8, r24	; 0x08
     816:	06 c0       	rjmp	.+12     	; 0x824 <os_timer_tick+0x32>
     818:	22 81       	ldd	r18, Z+2	; 0x02
     81a:	22 23       	and	r18, r18
     81c:	91 f4       	brne	.+36     	; 0x842 <os_timer_tick+0x50>
     81e:	01 97       	sbiw	r24, 0x01	; 1
     820:	91 87       	std	Z+9, r25	; 0x09
     822:	80 87       	std	Z+8, r24	; 0x08
     824:	80 85       	ldd	r24, Z+8	; 0x08
     826:	91 85       	ldd	r25, Z+9	; 0x09
     828:	00 97       	sbiw	r24, 0x00	; 0
     82a:	59 f4       	brne	.+22     	; 0x842 <os_timer_tick+0x50>
     82c:	81 e0       	ldi	r24, 0x01	; 1
     82e:	83 83       	std	Z+3, r24	; 0x03
     830:	86 81       	ldd	r24, Z+6	; 0x06
     832:	97 81       	ldd	r25, Z+7	; 0x07
     834:	00 97       	sbiw	r24, 0x00	; 0
     836:	19 f0       	breq	.+6      	; 0x83e <os_timer_tick+0x4c>
     838:	81 e0       	ldi	r24, 0x01	; 1
     83a:	81 83       	std	Z+1, r24	; 0x01
     83c:	01 c0       	rjmp	.+2      	; 0x840 <os_timer_tick+0x4e>
     83e:	11 82       	std	Z+1, r1	; 0x01
     840:	10 82       	st	Z, r1
     842:	08 95       	ret

00000844 <timer_init>:
     844:	fc 01       	movw	r30, r24
     846:	10 82       	st	Z, r1
     848:	11 82       	std	Z+1, r1	; 0x01
     84a:	62 83       	std	Z+2, r22	; 0x02
     84c:	13 82       	std	Z+3, r1	; 0x03
     84e:	55 83       	std	Z+5, r21	; 0x05
     850:	44 83       	std	Z+4, r20	; 0x04
     852:	37 83       	std	Z+7, r19	; 0x07
     854:	26 83       	std	Z+6, r18	; 0x06
     856:	9c cf       	rjmp	.-200    	; 0x790 <os_timer_add>

00000858 <timer_start>:
     858:	fc 01       	movw	r30, r24
     85a:	80 81       	ld	r24, Z
     85c:	88 23       	and	r24, r24
     85e:	41 f4       	brne	.+16     	; 0x870 <timer_start+0x18>
     860:	81 e0       	ldi	r24, 0x01	; 1
     862:	80 83       	st	Z, r24
     864:	11 82       	std	Z+1, r1	; 0x01
     866:	13 82       	std	Z+3, r1	; 0x03
     868:	84 81       	ldd	r24, Z+4	; 0x04
     86a:	95 81       	ldd	r25, Z+5	; 0x05
     86c:	91 87       	std	Z+9, r25	; 0x09
     86e:	80 87       	std	Z+8, r24	; 0x08
     870:	cf 01       	movw	r24, r30
     872:	8e cf       	rjmp	.-228    	; 0x790 <os_timer_add>

00000874 <timer_stop>:
     874:	fc 01       	movw	r30, r24
     876:	10 82       	st	Z, r1
     878:	11 82       	std	Z+1, r1	; 0x01
     87a:	08 95       	ret

0000087c <main>:
     87c:	cf 93       	push	r28
     87e:	df 93       	push	r29
     880:	cd b7       	in	r28, 0x3d	; 61
     882:	de b7       	in	r29, 0x3e	; 62
     884:	27 97       	sbiw	r28, 0x07	; 7
     886:	0f b6       	in	r0, 0x3f	; 63
     888:	f8 94       	cli
     88a:	de bf       	out	0x3e, r29	; 62
     88c:	0f be       	out	0x3f, r0	; 63
     88e:	cd bf       	out	0x3d, r28	; 61
     890:	09 e9       	ldi	r16, 0x99	; 153
     892:	12 e0       	ldi	r17, 0x02	; 2
     894:	0f 2e       	mov	r0, r31
     896:	f4 e1       	ldi	r31, 0x14	; 20
     898:	af 2e       	mov	r10, r31
     89a:	bb 24       	eor	r11, r11
     89c:	f0 2d       	mov	r31, r0
     89e:	a0 0e       	add	r10, r16
     8a0:	b1 1e       	adc	r11, r17
     8a2:	f8 01       	movw	r30, r16
     8a4:	11 92       	st	Z+, r1
     8a6:	11 92       	st	Z+, r1
     8a8:	ea 15       	cp	r30, r10
     8aa:	fb 05       	cpc	r31, r11
     8ac:	d9 f7       	brne	.-10     	; 0x8a4 <main+0x28>
     8ae:	67 dc       	rcall	.-1842   	; 0x17e <hw_timer_init>
     8b0:	be d0       	rcall	.+380    	; 0xa2e <application_start>
     8b2:	44 24       	eor	r4, r4
     8b4:	55 24       	eor	r5, r5
     8b6:	33 24       	eor	r3, r3
     8b8:	70 2e       	mov	r7, r16
     8ba:	61 2e       	mov	r6, r17
     8bc:	0f 2e       	mov	r0, r31
     8be:	f9 e9       	ldi	r31, 0x99	; 153
     8c0:	8f 2e       	mov	r8, r31
     8c2:	f2 e0       	ldi	r31, 0x02	; 2
     8c4:	9f 2e       	mov	r9, r31
     8c6:	f0 2d       	mov	r31, r0
     8c8:	9d dd       	rcall	.-1222   	; 0x404 <radio_tx_done>
     8ca:	88 23       	and	r24, r24
     8cc:	09 f0       	breq	.+2      	; 0x8d0 <main+0x54>
     8ce:	de d1       	rcall	.+956    	; 0xc8c <application_radio_tx_done>
     8d0:	03 de       	rcall	.-1018   	; 0x4d8 <radio_rxed>
     8d2:	88 23       	and	r24, r24
     8d4:	89 f1       	breq	.+98     	; 0x938 <main+0xbc>
     8d6:	8d ea       	ldi	r24, 0xAD	; 173
     8d8:	92 e0       	ldi	r25, 0x02	; 2
     8da:	60 e8       	ldi	r22, 0x80	; 128
     8dc:	ae 01       	movw	r20, r28
     8de:	4a 5f       	subi	r20, 0xFA	; 250
     8e0:	5f 4f       	sbci	r21, 0xFF	; 255
     8e2:	9e 01       	movw	r18, r28
     8e4:	2c 5f       	subi	r18, 0xFC	; 252
     8e6:	3f 4f       	sbci	r19, 0xFF	; 255
     8e8:	8e 01       	movw	r16, r28
     8ea:	0d 5f       	subi	r16, 0xFD	; 253
     8ec:	1f 4f       	sbci	r17, 0xFF	; 255
     8ee:	ee 24       	eor	r14, r14
     8f0:	ff 24       	eor	r15, r15
     8f2:	68 94       	set
     8f4:	e1 f8       	bld	r14, 1
     8f6:	ec 0e       	add	r14, r28
     8f8:	fd 1e       	adc	r15, r29
     8fa:	6e 01       	movw	r12, r28
     8fc:	08 94       	sec
     8fe:	c1 1c       	adc	r12, r1
     900:	d1 1c       	adc	r13, r1
     902:	f0 dd       	rcall	.-1056   	; 0x4e4 <radio_recv>
     904:	08 2f       	mov	r16, r24
     906:	8b 81       	ldd	r24, Y+3	; 0x03
     908:	88 23       	and	r24, r24
     90a:	b1 f0       	breq	.+44     	; 0x938 <main+0xbc>
     90c:	a3 de       	rcall	.-698    	; 0x654 <radio_getid>
     90e:	2e 81       	ldd	r18, Y+6	; 0x06
     910:	3f 81       	ldd	r19, Y+7	; 0x07
     912:	82 17       	cp	r24, r18
     914:	93 07       	cpc	r25, r19
     916:	39 f0       	breq	.+14     	; 0x926 <main+0xaa>
     918:	8f ef       	ldi	r24, 0xFF	; 255
     91a:	2f 3f       	cpi	r18, 0xFF	; 255
     91c:	38 07       	cpc	r19, r24
     91e:	19 f0       	breq	.+6      	; 0x926 <main+0xaa>
     920:	96 de       	rcall	.-724    	; 0x64e <radio_rx_all>
     922:	88 23       	and	r24, r24
     924:	49 f0       	breq	.+18     	; 0x938 <main+0xbc>
     926:	6c 81       	ldd	r22, Y+4	; 0x04
     928:	7d 81       	ldd	r23, Y+5	; 0x05
     92a:	8e 81       	ldd	r24, Y+6	; 0x06
     92c:	9f 81       	ldd	r25, Y+7	; 0x07
     92e:	40 2f       	mov	r20, r16
     930:	50 e0       	ldi	r21, 0x00	; 0
     932:	2d ea       	ldi	r18, 0xAD	; 173
     934:	32 e0       	ldi	r19, 0x02	; 2
     936:	be d0       	rcall	.+380    	; 0xab4 <application_radio_rx_msg>
     938:	48 dc       	rcall	.-1904   	; 0x1ca <hw_timer_now_us>
     93a:	dc 01       	movw	r26, r24
     93c:	cb 01       	movw	r24, r22
     93e:	40 91 94 02 	lds	r20, 0x0294
     942:	50 91 95 02 	lds	r21, 0x0295
     946:	60 91 96 02 	lds	r22, 0x0296
     94a:	70 91 97 02 	lds	r23, 0x0297
     94e:	48 17       	cp	r20, r24
     950:	59 07       	cpc	r21, r25
     952:	6a 07       	cpc	r22, r26
     954:	7b 07       	cpc	r23, r27
     956:	78 f5       	brcc	.+94     	; 0x9b6 <main+0x13a>
     958:	38 dc       	rcall	.-1936   	; 0x1ca <hw_timer_now_us>
     95a:	dc 01       	movw	r26, r24
     95c:	cb 01       	movw	r24, r22
     95e:	88 51       	subi	r24, 0x18	; 24
     960:	9c 4f       	sbci	r25, 0xFC	; 252
     962:	af 4f       	sbci	r26, 0xFF	; 255
     964:	bf 4f       	sbci	r27, 0xFF	; 255
     966:	80 93 94 02 	sts	0x0294, r24
     96a:	90 93 95 02 	sts	0x0295, r25
     96e:	a0 93 96 02 	sts	0x0296, r26
     972:	b0 93 97 02 	sts	0x0297, r27
     976:	07 2d       	mov	r16, r7
     978:	16 2d       	mov	r17, r6
     97a:	d8 01       	movw	r26, r16
     97c:	8d 91       	ld	r24, X+
     97e:	9d 91       	ld	r25, X+
     980:	8d 01       	movw	r16, r26
     982:	61 e0       	ldi	r22, 0x01	; 1
     984:	36 df       	rcall	.-404    	; 0x7f2 <os_timer_tick>
     986:	0a 15       	cp	r16, r10
     988:	1b 05       	cpc	r17, r11
     98a:	b9 f7       	brne	.-18     	; 0x97a <main+0xfe>
     98c:	08 94       	sec
     98e:	41 1c       	adc	r4, r1
     990:	51 1c       	adc	r5, r1
     992:	b8 ee       	ldi	r27, 0xE8	; 232
     994:	4b 16       	cp	r4, r27
     996:	b3 e0       	ldi	r27, 0x03	; 3
     998:	5b 06       	cpc	r5, r27
     99a:	68 f0       	brcs	.+26     	; 0x9b6 <main+0x13a>
     99c:	07 2d       	mov	r16, r7
     99e:	16 2d       	mov	r17, r6
     9a0:	f8 01       	movw	r30, r16
     9a2:	81 91       	ld	r24, Z+
     9a4:	91 91       	ld	r25, Z+
     9a6:	8f 01       	movw	r16, r30
     9a8:	60 e0       	ldi	r22, 0x00	; 0
     9aa:	23 df       	rcall	.-442    	; 0x7f2 <os_timer_tick>
     9ac:	a0 16       	cp	r10, r16
     9ae:	b1 06       	cpc	r11, r17
     9b0:	b9 f7       	brne	.-18     	; 0x9a0 <main+0x124>
     9b2:	44 24       	eor	r4, r4
     9b4:	55 24       	eor	r5, r5
     9b6:	a7 2d       	mov	r26, r7
     9b8:	b6 2d       	mov	r27, r6
     9ba:	00 e0       	ldi	r16, 0x00	; 0
     9bc:	10 e0       	ldi	r17, 0x00	; 0
     9be:	ed 91       	ld	r30, X+
     9c0:	fd 91       	ld	r31, X+
     9c2:	30 97       	sbiw	r30, 0x00	; 0
     9c4:	71 f1       	breq	.+92     	; 0xa22 <main+0x1a6>
     9c6:	83 81       	ldd	r24, Z+3	; 0x03
     9c8:	88 23       	and	r24, r24
     9ca:	59 f1       	breq	.+86     	; 0xa22 <main+0x1a6>
     9cc:	cf 01       	movw	r24, r30
     9ce:	53 d0       	rcall	.+166    	; 0xa76 <application_timer_tick>
     9d0:	c8 01       	movw	r24, r16
     9d2:	88 0f       	add	r24, r24
     9d4:	99 1f       	adc	r25, r25
     9d6:	88 0d       	add	r24, r8
     9d8:	99 1d       	adc	r25, r9
     9da:	dc 01       	movw	r26, r24
     9dc:	ed 91       	ld	r30, X+
     9de:	fc 91       	ld	r31, X
     9e0:	11 97       	sbiw	r26, 0x01	; 1
     9e2:	13 82       	std	Z+3, r1	; 0x03
     9e4:	81 81       	ldd	r24, Z+1	; 0x01
     9e6:	88 23       	and	r24, r24
     9e8:	41 f0       	breq	.+16     	; 0x9fa <main+0x17e>
     9ea:	86 81       	ldd	r24, Z+6	; 0x06
     9ec:	97 81       	ldd	r25, Z+7	; 0x07
     9ee:	00 97       	sbiw	r24, 0x00	; 0
     9f0:	21 f0       	breq	.+8      	; 0x9fa <main+0x17e>
     9f2:	91 87       	std	Z+9, r25	; 0x09
     9f4:	80 87       	std	Z+8, r24	; 0x08
     9f6:	81 e0       	ldi	r24, 0x01	; 1
     9f8:	80 83       	st	Z, r24
     9fa:	11 82       	std	Z+1, r1	; 0x01
     9fc:	b3 db       	rcall	.-2202   	; 0x164 <button_pressed>
     9fe:	88 23       	and	r24, r24
     a00:	31 f0       	breq	.+12     	; 0xa0e <main+0x192>
     a02:	33 20       	and	r3, r3
     a04:	21 f4       	brne	.+8      	; 0xa0e <main+0x192>
     a06:	5d d1       	rcall	.+698    	; 0xcc2 <application_button_pressed>
     a08:	33 24       	eor	r3, r3
     a0a:	33 94       	inc	r3
     a0c:	5d cf       	rjmp	.-326    	; 0x8c8 <main+0x4c>
     a0e:	ae db       	rcall	.-2212   	; 0x16c <button_released>
     a10:	88 23       	and	r24, r24
     a12:	09 f4       	brne	.+2      	; 0xa16 <main+0x19a>
     a14:	59 cf       	rjmp	.-334    	; 0x8c8 <main+0x4c>
     a16:	33 20       	and	r3, r3
     a18:	09 f4       	brne	.+2      	; 0xa1c <main+0x1a0>
     a1a:	56 cf       	rjmp	.-340    	; 0x8c8 <main+0x4c>
     a1c:	53 d1       	rcall	.+678    	; 0xcc4 <application_button_released>
     a1e:	33 24       	eor	r3, r3
     a20:	53 cf       	rjmp	.-346    	; 0x8c8 <main+0x4c>
     a22:	0f 5f       	subi	r16, 0xFF	; 255
     a24:	1f 4f       	sbci	r17, 0xFF	; 255
     a26:	0a 30       	cpi	r16, 0x0A	; 10
     a28:	11 05       	cpc	r17, r1
     a2a:	49 f6       	brne	.-110    	; 0x9be <main+0x142>
     a2c:	e7 cf       	rjmp	.-50     	; 0x9fc <main+0x180>

00000a2e <application_start>:
     a2e:	cd db       	rcall	.-2150   	; 0x1ca <hw_timer_now_us>
     a30:	cb 01       	movw	r24, r22
     a32:	fb d1       	rcall	.+1014   	; 0xe2a <srand>
     a34:	78 dc       	rcall	.-1808   	; 0x326 <leds_init>
     a36:	93 db       	rcall	.-2266   	; 0x15e <button_init>
     a38:	60 e0       	ldi	r22, 0x00	; 0
     a3a:	82 e0       	ldi	r24, 0x02	; 2
     a3c:	90 e0       	ldi	r25, 0x00	; 0
     a3e:	92 dc       	rcall	.-1756   	; 0x364 <radio_init>
     a40:	81 e0       	ldi	r24, 0x01	; 1
     a42:	e8 dd       	rcall	.-1072   	; 0x614 <radio_set_power>
     a44:	cd dc       	rcall	.-1638   	; 0x3e0 <radio_start>
     a46:	60 e8       	ldi	r22, 0x80	; 128
     a48:	75 e2       	ldi	r23, 0x25	; 37
     a4a:	80 e0       	ldi	r24, 0x00	; 0
     a4c:	90 e0       	ldi	r25, 0x00	; 0
     a4e:	07 de       	rcall	.-1010   	; 0x65e <serial_init>
     a50:	83 e1       	ldi	r24, 0x13	; 19
     a52:	92 e0       	ldi	r25, 0x02	; 2
     a54:	9f 93       	push	r25
     a56:	8f 93       	push	r24
     a58:	37 d2       	rcall	.+1134   	; 0xec8 <printf>
	radio_set_power(1);
	radio_start();
	serial_init(9600);
	printf("test");
	
	timer_init(&timer1, TIMER_MILLISECONDS, 1000, 100);
     a5a:	24 e6       	ldi	r18, 0x64	; 100
     a5c:	30 e0       	ldi	r19, 0x00	; 0
     a5e:	48 ee       	ldi	r20, 0xE8	; 232
     a60:	53 e0       	ldi	r21, 0x03	; 3
     a62:	61 e0       	ldi	r22, 0x01	; 1
     a64:	8e e2       	ldi	r24, 0x2E	; 46
     a66:	93 e0       	ldi	r25, 0x03	; 3
     a68:	ed de       	rcall	.-550    	; 0x844 <timer_init>
	timer_start(&timer1);
     a6a:	8e e2       	ldi	r24, 0x2E	; 46
     a6c:	93 e0       	ldi	r25, 0x03	; 3
     a6e:	f4 de       	rcall	.-536    	; 0x858 <timer_start>
     a70:	0f 90       	pop	r0
     a72:	0f 90       	pop	r0
     a74:	08 95       	ret

00000a76 <application_timer_tick>:
}*/

void application_timer_tick(timer *t)
{
	//TODO: after a random amount of time, send a NACK.
	if(canSend){
     a76:	80 91 2d 03 	lds	r24, 0x032D
     a7a:	88 23       	and	r24, r24
     a7c:	d1 f0       	breq	.+52     	; 0xab2 <application_timer_tick+0x3c>
		if(tx_buffer_inuse == false)
     a7e:	80 91 39 03 	lds	r24, 0x0339
     a82:	81 11       	cpse	r24, r1
     a84:	16 c0       	rjmp	.+44     	; 0xab2 <application_timer_tick+0x3c>
		{
			tx_buffer_inuse = true;
     a86:	81 e0       	ldi	r24, 0x01	; 1
     a88:	80 93 39 03 	sts	0x0339, r24
			canSend = false;
     a8c:	10 92 2d 03 	sts	0x032D, r1
			memcpy(&tx_buffer, &newPkt, sizeof(Packet));
     a90:	84 e1       	ldi	r24, 0x14	; 20
     a92:	ee eb       	ldi	r30, 0xBE	; 190
     a94:	f3 e0       	ldi	r31, 0x03	; 3
     a96:	aa e3       	ldi	r26, 0x3A	; 58
     a98:	b3 e0       	ldi	r27, 0x03	; 3
     a9a:	01 90       	ld	r0, Z+
     a9c:	0d 92       	st	X+, r0
     a9e:	8a 95       	dec	r24
     aa0:	e1 f7       	brne	.-8      	; 0xa9a <application_timer_tick+0x24>
			radio_send(tx_buffer, sizeof(Packet), newPkt.dst);
     aa2:	40 91 be 03 	lds	r20, 0x03BE
     aa6:	50 91 bf 03 	lds	r21, 0x03BF
     aaa:	64 e1       	ldi	r22, 0x14	; 20
     aac:	8a e3       	ldi	r24, 0x3A	; 58
     aae:	93 e0       	ldi	r25, 0x03	; 3
     ab0:	ae cc       	rjmp	.-1700   	; 0x40e <radio_send>
     ab2:	08 95       	ret

00000ab4 <application_radio_rx_msg>:
		}
	}
}

void application_radio_rx_msg(unsigned short dst, unsigned short src, int len, unsigned char *msgdata)
{
     ab4:	8f 92       	push	r8
     ab6:	9f 92       	push	r9
     ab8:	af 92       	push	r10
     aba:	bf 92       	push	r11
     abc:	cf 92       	push	r12
     abe:	df 92       	push	r13
     ac0:	ef 92       	push	r14
     ac2:	ff 92       	push	r15
     ac4:	0f 93       	push	r16
     ac6:	1f 93       	push	r17
     ac8:	cf 93       	push	r28
     aca:	df 93       	push	r29
     acc:	cd b7       	in	r28, 0x3d	; 61
     ace:	de b7       	in	r29, 0x3e	; 62
     ad0:	a2 97       	sbiw	r28, 0x22	; 34
     ad2:	0f b6       	in	r0, 0x3f	; 63
     ad4:	f8 94       	cli
     ad6:	de bf       	out	0x3e, r29	; 62
     ad8:	0f be       	out	0x3f, r0	; 63
     ada:	cd bf       	out	0x3d, r28	; 61
     adc:	8b 01       	movw	r16, r22
	char string[17];
	
	for(int i = 4; i<len; i++)
     ade:	45 30       	cpi	r20, 0x05	; 5
     ae0:	51 05       	cpc	r21, r1
     ae2:	c4 f0       	brlt	.+48     	; 0xb14 <application_radio_rx_msg+0x60>
     ae4:	79 01       	movw	r14, r18
     ae6:	84 e0       	ldi	r24, 0x04	; 4
     ae8:	e8 0e       	add	r14, r24
     aea:	f1 1c       	adc	r15, r1
     aec:	fe 01       	movw	r30, r28
     aee:	31 96       	adiw	r30, 0x01	; 1
     af0:	6f 01       	movw	r12, r30
     af2:	49 01       	movw	r8, r18
     af4:	84 0e       	add	r8, r20
     af6:	95 1e       	adc	r9, r21
     af8:	57 01       	movw	r10, r14
	{
		printf("%c", msgdata[i]);
     afa:	f7 01       	movw	r30, r14
     afc:	81 91       	ld	r24, Z+
     afe:	7f 01       	movw	r14, r30
     b00:	90 e0       	ldi	r25, 0x00	; 0
     b02:	f3 d1       	rcall	.+998    	; 0xeea <putchar>
		string[i-4] = msgdata[i];
     b04:	f5 01       	movw	r30, r10
     b06:	80 81       	ld	r24, Z
     b08:	f6 01       	movw	r30, r12
     b0a:	81 93       	st	Z+, r24
     b0c:	6f 01       	movw	r12, r30

void application_radio_rx_msg(unsigned short dst, unsigned short src, int len, unsigned char *msgdata)
{
	char string[17];
	
	for(int i = 4; i<len; i++)
     b0e:	e8 14       	cp	r14, r8
     b10:	f9 04       	cpc	r15, r9
     b12:	91 f7       	brne	.-28     	; 0xaf8 <application_radio_rx_msg+0x44>
	{
		printf("%c", msgdata[i]);
		string[i-4] = msgdata[i];
	}
	string[16] = '\0';
     b14:	19 8a       	std	Y+17, r1	; 0x11
	
	if(strcmp(string, "OPENOPENOPENOPEN") == 0){
     b16:	68 e1       	ldi	r22, 0x18	; 24
     b18:	72 e0       	ldi	r23, 0x02	; 2
     b1a:	ce 01       	movw	r24, r28
     b1c:	01 96       	adiw	r24, 0x01	; 1
     b1e:	b6 d1       	rcall	.+876    	; 0xe8c <strcmp>
     b20:	89 2b       	or	r24, r25
     b22:	09 f0       	breq	.+2      	; 0xb26 <application_radio_rx_msg+0x72>
     b24:	40 c0       	rjmp	.+128    	; 0xba6 <application_radio_rx_msg+0xf2>
		printf("sending a random number\r\n");
     b26:	89 e2       	ldi	r24, 0x29	; 41
     b28:	92 e0       	ldi	r25, 0x02	; 2
     b2a:	e4 d1       	rcall	.+968    	; 0xef4 <puts>
		
		num = rand() % 65534;
     b2c:	7b d1       	rcall	.+758    	; 0xe24 <rand>
     b2e:	bc 01       	movw	r22, r24
     b30:	88 27       	eor	r24, r24
     b32:	77 fd       	sbrc	r23, 7
     b34:	80 95       	com	r24
     b36:	98 2f       	mov	r25, r24
     b38:	2e ef       	ldi	r18, 0xFE	; 254
     b3a:	3f ef       	ldi	r19, 0xFF	; 255
     b3c:	40 e0       	ldi	r20, 0x00	; 0
     b3e:	50 e0       	ldi	r21, 0x00	; 0
     b40:	f3 d0       	rcall	.+486    	; 0xd28 <__divmodsi4>
     b42:	60 93 ba 03 	sts	0x03BA, r22
     b46:	70 93 bb 03 	sts	0x03BB, r23
     b4a:	80 93 bc 03 	sts	0x03BC, r24
     b4e:	90 93 bd 03 	sts	0x03BD, r25
		char number[17];
		sprintf(number, "%lu", num);
     b52:	9f 93       	push	r25
     b54:	8f 93       	push	r24
     b56:	7f 93       	push	r23
     b58:	6f 93       	push	r22
     b5a:	82 e4       	ldi	r24, 0x42	; 66
     b5c:	92 e0       	ldi	r25, 0x02	; 2
     b5e:	9f 93       	push	r25
     b60:	8f 93       	push	r24
     b62:	8e 01       	movw	r16, r28
     b64:	0e 5e       	subi	r16, 0xEE	; 238
     b66:	1f 4f       	sbci	r17, 0xFF	; 255
     b68:	1f 93       	push	r17
     b6a:	0f 93       	push	r16
     b6c:	f0 d1       	rcall	.+992    	; 0xf4e <sprintf>
		
		newPkt.dst = 0x01;
     b6e:	81 e0       	ldi	r24, 0x01	; 1
     b70:	90 e0       	ldi	r25, 0x00	; 0
     b72:	90 93 bf 03 	sts	0x03BF, r25
     b76:	80 93 be 03 	sts	0x03BE, r24
		newPkt.src = NODE_ID;
     b7a:	82 e0       	ldi	r24, 0x02	; 2
     b7c:	90 e0       	ldi	r25, 0x00	; 0
     b7e:	90 93 c1 03 	sts	0x03C1, r25
     b82:	80 93 c0 03 	sts	0x03C0, r24
		
		sprintf(newPkt.dt, number);
     b86:	1f 93       	push	r17
     b88:	0f 93       	push	r16
     b8a:	82 ec       	ldi	r24, 0xC2	; 194
     b8c:	93 e0       	ldi	r25, 0x03	; 3
     b8e:	9f 93       	push	r25
     b90:	8f 93       	push	r24
     b92:	dd d1       	rcall	.+954    	; 0xf4e <sprintf>
		canSend = true;
     b94:	81 e0       	ldi	r24, 0x01	; 1
     b96:	80 93 2d 03 	sts	0x032D, r24
     b9a:	0f b6       	in	r0, 0x3f	; 63
     b9c:	f8 94       	cli
     b9e:	de bf       	out	0x3e, r29	; 62
     ba0:	0f be       	out	0x3f, r0	; 63
     ba2:	cd bf       	out	0x3d, r28	; 61
     ba4:	60 c0       	rjmp	.+192    	; 0xc66 <application_radio_rx_msg+0x1b2>
	}
	else{
		long temp1 = atol(string);
     ba6:	ce 01       	movw	r24, r28
     ba8:	01 96       	adiw	r24, 0x01	; 1
     baa:	4a d1       	rcall	.+660    	; 0xe40 <atol>
		
		if(temp1 == num + 1){
     bac:	c0 90 ba 03 	lds	r12, 0x03BA
     bb0:	d0 90 bb 03 	lds	r13, 0x03BB
     bb4:	e0 90 bc 03 	lds	r14, 0x03BC
     bb8:	f0 90 bd 03 	lds	r15, 0x03BD
     bbc:	ef ef       	ldi	r30, 0xFF	; 255
     bbe:	ce 1a       	sub	r12, r30
     bc0:	de 0a       	sbc	r13, r30
     bc2:	ee 0a       	sbc	r14, r30
     bc4:	fe 0a       	sbc	r15, r30
     bc6:	6c 15       	cp	r22, r12
     bc8:	7d 05       	cpc	r23, r13
     bca:	8e 05       	cpc	r24, r14
     bcc:	9f 05       	cpc	r25, r15
     bce:	81 f5       	brne	.+96     	; 0xc30 <application_radio_rx_msg+0x17c>
			printf("sending an ack\r\n");
     bd0:	86 e4       	ldi	r24, 0x46	; 70
     bd2:	92 e0       	ldi	r25, 0x02	; 2
     bd4:	8f d1       	rcall	.+798    	; 0xef4 <puts>
			//turn on leds, open gate.
			if(open){
     bd6:	80 91 38 03 	lds	r24, 0x0338
     bda:	88 23       	and	r24, r24
     bdc:	49 f0       	breq	.+18     	; 0xbf0 <application_radio_rx_msg+0x13c>
				leds_off(LED_GREEN);
     bde:	81 e0       	ldi	r24, 0x01	; 1
     be0:	b5 db       	rcall	.-2198   	; 0x34c <leds_off>
				leds_off(LED_RED);
     be2:	83 e0       	ldi	r24, 0x03	; 3
     be4:	b3 db       	rcall	.-2202   	; 0x34c <leds_off>
				leds_off(LED_ORANGE);
     be6:	82 e0       	ldi	r24, 0x02	; 2
     be8:	b1 db       	rcall	.-2206   	; 0x34c <leds_off>
				open = false;
     bea:	10 92 38 03 	sts	0x0338, r1
     bee:	09 c0       	rjmp	.+18     	; 0xc02 <application_radio_rx_msg+0x14e>
			}
			else{
				leds_on(LED_GREEN);
     bf0:	81 e0       	ldi	r24, 0x01	; 1
     bf2:	a0 db       	rcall	.-2240   	; 0x334 <leds_on>
				leds_off(LED_RED);
     bf4:	83 e0       	ldi	r24, 0x03	; 3
     bf6:	aa db       	rcall	.-2220   	; 0x34c <leds_off>
				leds_off(LED_ORANGE);
     bf8:	82 e0       	ldi	r24, 0x02	; 2
     bfa:	a8 db       	rcall	.-2224   	; 0x34c <leds_off>
				open = true;
     bfc:	81 e0       	ldi	r24, 0x01	; 1
     bfe:	80 93 38 03 	sts	0x0338, r24
			}
			newPkt.dst = src;
     c02:	10 93 bf 03 	sts	0x03BF, r17
     c06:	00 93 be 03 	sts	0x03BE, r16
			newPkt.src = NODE_ID;
     c0a:	82 e0       	ldi	r24, 0x02	; 2
     c0c:	90 e0       	ldi	r25, 0x00	; 0
     c0e:	90 93 c1 03 	sts	0x03C1, r25
     c12:	80 93 c0 03 	sts	0x03C0, r24
			sprintf(newPkt.dt, "ACKACKacACKACKac");
     c16:	81 e1       	ldi	r24, 0x11	; 17
     c18:	e6 e5       	ldi	r30, 0x56	; 86
     c1a:	f2 e0       	ldi	r31, 0x02	; 2
     c1c:	a2 ec       	ldi	r26, 0xC2	; 194
     c1e:	b3 e0       	ldi	r27, 0x03	; 3
     c20:	01 90       	ld	r0, Z+
     c22:	0d 92       	st	X+, r0
     c24:	8a 95       	dec	r24
     c26:	e1 f7       	brne	.-8      	; 0xc20 <application_radio_rx_msg+0x16c>
			canSend = true;
     c28:	81 e0       	ldi	r24, 0x01	; 1
     c2a:	80 93 2d 03 	sts	0x032D, r24
     c2e:	1b c0       	rjmp	.+54     	; 0xc66 <application_radio_rx_msg+0x1b2>
		}
		else{
			//send a nack
			printf("sending a nack\r\n");
     c30:	87 e6       	ldi	r24, 0x67	; 103
     c32:	92 e0       	ldi	r25, 0x02	; 2
     c34:	5f d1       	rcall	.+702    	; 0xef4 <puts>
			newPkt.dst = 0x01;
     c36:	81 e0       	ldi	r24, 0x01	; 1
     c38:	90 e0       	ldi	r25, 0x00	; 0
     c3a:	90 93 bf 03 	sts	0x03BF, r25
     c3e:	80 93 be 03 	sts	0x03BE, r24
			newPkt.src = NODE_ID;
     c42:	82 e0       	ldi	r24, 0x02	; 2
     c44:	90 e0       	ldi	r25, 0x00	; 0
     c46:	90 93 c1 03 	sts	0x03C1, r25
     c4a:	80 93 c0 03 	sts	0x03C0, r24
			sprintf(newPkt.dt, "NACKNACKNACKNACK");
     c4e:	81 e1       	ldi	r24, 0x11	; 17
     c50:	e7 e7       	ldi	r30, 0x77	; 119
     c52:	f2 e0       	ldi	r31, 0x02	; 2
     c54:	a2 ec       	ldi	r26, 0xC2	; 194
     c56:	b3 e0       	ldi	r27, 0x03	; 3
     c58:	01 90       	ld	r0, Z+
     c5a:	0d 92       	st	X+, r0
     c5c:	8a 95       	dec	r24
     c5e:	e1 f7       	brne	.-8      	; 0xc58 <application_radio_rx_msg+0x1a4>
			canSend = true;
     c60:	81 e0       	ldi	r24, 0x01	; 1
     c62:	80 93 2d 03 	sts	0x032D, r24
		}	
	}
}
     c66:	a2 96       	adiw	r28, 0x22	; 34
     c68:	0f b6       	in	r0, 0x3f	; 63
     c6a:	f8 94       	cli
     c6c:	de bf       	out	0x3e, r29	; 62
     c6e:	0f be       	out	0x3f, r0	; 63
     c70:	cd bf       	out	0x3d, r28	; 61
     c72:	df 91       	pop	r29
     c74:	cf 91       	pop	r28
     c76:	1f 91       	pop	r17
     c78:	0f 91       	pop	r16
     c7a:	ff 90       	pop	r15
     c7c:	ef 90       	pop	r14
     c7e:	df 90       	pop	r13
     c80:	cf 90       	pop	r12
     c82:	bf 90       	pop	r11
     c84:	af 90       	pop	r10
     c86:	9f 90       	pop	r9
     c88:	8f 90       	pop	r8
     c8a:	08 95       	ret

00000c8c <application_radio_tx_done>:

void application_radio_tx_done()
{
	tx_buffer_inuse = false;
     c8c:	10 92 39 03 	sts	0x0339, r1
     c90:	ea e3       	ldi	r30, 0x3A	; 58
     c92:	f3 e0       	ldi	r31, 0x03	; 3
     c94:	8a eb       	ldi	r24, 0xBA	; 186
     c96:	93 e0       	ldi	r25, 0x03	; 3
	
	//empty buffers after data has been sent
	for(int j=0; j<RADIO_MAX_LEN; j++)
	{
		tx_buffer[j] = 0x00;
     c98:	11 92       	st	Z+, r1
void application_radio_tx_done()
{
	tx_buffer_inuse = false;
	
	//empty buffers after data has been sent
	for(int j=0; j<RADIO_MAX_LEN; j++)
     c9a:	e8 17       	cp	r30, r24
     c9c:	f9 07       	cpc	r31, r25
     c9e:	e1 f7       	brne	.-8      	; 0xc98 <application_radio_tx_done+0xc>
	{
		tx_buffer[j] = 0x00;
	}
	newPkt.dst = 0;
     ca0:	10 92 bf 03 	sts	0x03BF, r1
     ca4:	10 92 be 03 	sts	0x03BE, r1
	newPkt.src = 0;
     ca8:	10 92 c1 03 	sts	0x03C1, r1
     cac:	10 92 c0 03 	sts	0x03C0, r1
     cb0:	e2 ec       	ldi	r30, 0xC2	; 194
     cb2:	f3 e0       	ldi	r31, 0x03	; 3
     cb4:	82 ed       	ldi	r24, 0xD2	; 210
     cb6:	93 e0       	ldi	r25, 0x03	; 3
	for(int i=0;i<sizeof(newPkt.dt);i++){
		newPkt.dt[i] = 0;
     cb8:	11 92       	st	Z+, r1
	{
		tx_buffer[j] = 0x00;
	}
	newPkt.dst = 0;
	newPkt.src = 0;
	for(int i=0;i<sizeof(newPkt.dt);i++){
     cba:	e8 17       	cp	r30, r24
     cbc:	f9 07       	cpc	r31, r25
     cbe:	e1 f7       	brne	.-8      	; 0xcb8 <application_radio_tx_done+0x2c>
		newPkt.dt[i] = 0;
	}
}
     cc0:	08 95       	ret

00000cc2 <application_button_pressed>:

void application_button_pressed(){
     cc2:	08 95       	ret

00000cc4 <application_button_released>:
	//Not needed.
}

void application_button_released(){
     cc4:	08 95       	ret

00000cc6 <__mulsi3>:
     cc6:	db 01       	movw	r26, r22
     cc8:	8f 93       	push	r24
     cca:	9f 93       	push	r25
     ccc:	49 d0       	rcall	.+146    	; 0xd60 <__muluhisi3>
     cce:	bf 91       	pop	r27
     cd0:	af 91       	pop	r26
     cd2:	a2 9f       	mul	r26, r18
     cd4:	80 0d       	add	r24, r0
     cd6:	91 1d       	adc	r25, r1
     cd8:	a3 9f       	mul	r26, r19
     cda:	90 0d       	add	r25, r0
     cdc:	b2 9f       	mul	r27, r18
     cde:	90 0d       	add	r25, r0
     ce0:	11 24       	eor	r1, r1
     ce2:	08 95       	ret

00000ce4 <__udivmodsi4>:
     ce4:	a1 e2       	ldi	r26, 0x21	; 33
     ce6:	1a 2e       	mov	r1, r26
     ce8:	aa 1b       	sub	r26, r26
     cea:	bb 1b       	sub	r27, r27
     cec:	fd 01       	movw	r30, r26
     cee:	0d c0       	rjmp	.+26     	; 0xd0a <__udivmodsi4_ep>

00000cf0 <__udivmodsi4_loop>:
     cf0:	aa 1f       	adc	r26, r26
     cf2:	bb 1f       	adc	r27, r27
     cf4:	ee 1f       	adc	r30, r30
     cf6:	ff 1f       	adc	r31, r31
     cf8:	a2 17       	cp	r26, r18
     cfa:	b3 07       	cpc	r27, r19
     cfc:	e4 07       	cpc	r30, r20
     cfe:	f5 07       	cpc	r31, r21
     d00:	20 f0       	brcs	.+8      	; 0xd0a <__udivmodsi4_ep>
     d02:	a2 1b       	sub	r26, r18
     d04:	b3 0b       	sbc	r27, r19
     d06:	e4 0b       	sbc	r30, r20
     d08:	f5 0b       	sbc	r31, r21

00000d0a <__udivmodsi4_ep>:
     d0a:	66 1f       	adc	r22, r22
     d0c:	77 1f       	adc	r23, r23
     d0e:	88 1f       	adc	r24, r24
     d10:	99 1f       	adc	r25, r25
     d12:	1a 94       	dec	r1
     d14:	69 f7       	brne	.-38     	; 0xcf0 <__udivmodsi4_loop>
     d16:	60 95       	com	r22
     d18:	70 95       	com	r23
     d1a:	80 95       	com	r24
     d1c:	90 95       	com	r25
     d1e:	9b 01       	movw	r18, r22
     d20:	ac 01       	movw	r20, r24
     d22:	bd 01       	movw	r22, r26
     d24:	cf 01       	movw	r24, r30
     d26:	08 95       	ret

00000d28 <__divmodsi4>:
     d28:	05 2e       	mov	r0, r21
     d2a:	97 fb       	bst	r25, 7
     d2c:	16 f4       	brtc	.+4      	; 0xd32 <__divmodsi4+0xa>
     d2e:	00 94       	com	r0
     d30:	0f d0       	rcall	.+30     	; 0xd50 <__negsi2>
     d32:	57 fd       	sbrc	r21, 7
     d34:	05 d0       	rcall	.+10     	; 0xd40 <__divmodsi4_neg2>
     d36:	d6 df       	rcall	.-84     	; 0xce4 <__udivmodsi4>
     d38:	07 fc       	sbrc	r0, 7
     d3a:	02 d0       	rcall	.+4      	; 0xd40 <__divmodsi4_neg2>
     d3c:	46 f4       	brtc	.+16     	; 0xd4e <__divmodsi4_exit>
     d3e:	08 c0       	rjmp	.+16     	; 0xd50 <__negsi2>

00000d40 <__divmodsi4_neg2>:
     d40:	50 95       	com	r21
     d42:	40 95       	com	r20
     d44:	30 95       	com	r19
     d46:	21 95       	neg	r18
     d48:	3f 4f       	sbci	r19, 0xFF	; 255
     d4a:	4f 4f       	sbci	r20, 0xFF	; 255
     d4c:	5f 4f       	sbci	r21, 0xFF	; 255

00000d4e <__divmodsi4_exit>:
     d4e:	08 95       	ret

00000d50 <__negsi2>:
     d50:	90 95       	com	r25
     d52:	80 95       	com	r24
     d54:	70 95       	com	r23
     d56:	61 95       	neg	r22
     d58:	7f 4f       	sbci	r23, 0xFF	; 255
     d5a:	8f 4f       	sbci	r24, 0xFF	; 255
     d5c:	9f 4f       	sbci	r25, 0xFF	; 255
     d5e:	08 95       	ret

00000d60 <__muluhisi3>:
     d60:	09 d0       	rcall	.+18     	; 0xd74 <__umulhisi3>
     d62:	a5 9f       	mul	r26, r21
     d64:	90 0d       	add	r25, r0
     d66:	b4 9f       	mul	r27, r20
     d68:	90 0d       	add	r25, r0
     d6a:	a4 9f       	mul	r26, r20
     d6c:	80 0d       	add	r24, r0
     d6e:	91 1d       	adc	r25, r1
     d70:	11 24       	eor	r1, r1
     d72:	08 95       	ret

00000d74 <__umulhisi3>:
     d74:	a2 9f       	mul	r26, r18
     d76:	b0 01       	movw	r22, r0
     d78:	b3 9f       	mul	r27, r19
     d7a:	c0 01       	movw	r24, r0
     d7c:	a3 9f       	mul	r26, r19
     d7e:	70 0d       	add	r23, r0
     d80:	81 1d       	adc	r24, r1
     d82:	11 24       	eor	r1, r1
     d84:	91 1d       	adc	r25, r1
     d86:	b2 9f       	mul	r27, r18
     d88:	70 0d       	add	r23, r0
     d8a:	81 1d       	adc	r24, r1
     d8c:	11 24       	eor	r1, r1
     d8e:	91 1d       	adc	r25, r1
     d90:	08 95       	ret

00000d92 <do_rand>:
     d92:	8f 92       	push	r8
     d94:	9f 92       	push	r9
     d96:	af 92       	push	r10
     d98:	bf 92       	push	r11
     d9a:	cf 92       	push	r12
     d9c:	df 92       	push	r13
     d9e:	ef 92       	push	r14
     da0:	ff 92       	push	r15
     da2:	cf 93       	push	r28
     da4:	df 93       	push	r29
     da6:	ec 01       	movw	r28, r24
     da8:	68 81       	ld	r22, Y
     daa:	79 81       	ldd	r23, Y+1	; 0x01
     dac:	8a 81       	ldd	r24, Y+2	; 0x02
     dae:	9b 81       	ldd	r25, Y+3	; 0x03
     db0:	61 15       	cp	r22, r1
     db2:	71 05       	cpc	r23, r1
     db4:	81 05       	cpc	r24, r1
     db6:	91 05       	cpc	r25, r1
     db8:	21 f4       	brne	.+8      	; 0xdc2 <do_rand+0x30>
     dba:	64 e2       	ldi	r22, 0x24	; 36
     dbc:	79 ed       	ldi	r23, 0xD9	; 217
     dbe:	8b e5       	ldi	r24, 0x5B	; 91
     dc0:	97 e0       	ldi	r25, 0x07	; 7
     dc2:	2d e1       	ldi	r18, 0x1D	; 29
     dc4:	33 ef       	ldi	r19, 0xF3	; 243
     dc6:	41 e0       	ldi	r20, 0x01	; 1
     dc8:	50 e0       	ldi	r21, 0x00	; 0
     dca:	ae df       	rcall	.-164    	; 0xd28 <__divmodsi4>
     dcc:	49 01       	movw	r8, r18
     dce:	5a 01       	movw	r10, r20
     dd0:	9b 01       	movw	r18, r22
     dd2:	ac 01       	movw	r20, r24
     dd4:	a7 ea       	ldi	r26, 0xA7	; 167
     dd6:	b1 e4       	ldi	r27, 0x41	; 65
     dd8:	c3 df       	rcall	.-122    	; 0xd60 <__muluhisi3>
     dda:	6b 01       	movw	r12, r22
     ddc:	7c 01       	movw	r14, r24
     dde:	ac ee       	ldi	r26, 0xEC	; 236
     de0:	b4 ef       	ldi	r27, 0xF4	; 244
     de2:	a5 01       	movw	r20, r10
     de4:	94 01       	movw	r18, r8
     de6:	77 d3       	rcall	.+1774   	; 0x14d6 <__mulohisi3>
     de8:	c6 0e       	add	r12, r22
     dea:	d7 1e       	adc	r13, r23
     dec:	e8 1e       	adc	r14, r24
     dee:	f9 1e       	adc	r15, r25
     df0:	f7 fe       	sbrs	r15, 7
     df2:	06 c0       	rjmp	.+12     	; 0xe00 <do_rand+0x6e>
     df4:	81 e0       	ldi	r24, 0x01	; 1
     df6:	c8 1a       	sub	r12, r24
     df8:	d1 08       	sbc	r13, r1
     dfa:	e1 08       	sbc	r14, r1
     dfc:	80 e8       	ldi	r24, 0x80	; 128
     dfe:	f8 0a       	sbc	r15, r24
     e00:	c8 82       	st	Y, r12
     e02:	d9 82       	std	Y+1, r13	; 0x01
     e04:	ea 82       	std	Y+2, r14	; 0x02
     e06:	fb 82       	std	Y+3, r15	; 0x03
     e08:	c6 01       	movw	r24, r12
     e0a:	9f 77       	andi	r25, 0x7F	; 127
     e0c:	df 91       	pop	r29
     e0e:	cf 91       	pop	r28
     e10:	ff 90       	pop	r15
     e12:	ef 90       	pop	r14
     e14:	df 90       	pop	r13
     e16:	cf 90       	pop	r12
     e18:	bf 90       	pop	r11
     e1a:	af 90       	pop	r10
     e1c:	9f 90       	pop	r9
     e1e:	8f 90       	pop	r8
     e20:	08 95       	ret

00000e22 <rand_r>:
     e22:	b7 cf       	rjmp	.-146    	; 0xd92 <do_rand>

00000e24 <rand>:
     e24:	8f e0       	ldi	r24, 0x0F	; 15
     e26:	92 e0       	ldi	r25, 0x02	; 2
     e28:	b4 cf       	rjmp	.-152    	; 0xd92 <do_rand>

00000e2a <srand>:
     e2a:	a0 e0       	ldi	r26, 0x00	; 0
     e2c:	b0 e0       	ldi	r27, 0x00	; 0
     e2e:	80 93 0f 02 	sts	0x020F, r24
     e32:	90 93 10 02 	sts	0x0210, r25
     e36:	a0 93 11 02 	sts	0x0211, r26
     e3a:	b0 93 12 02 	sts	0x0212, r27
     e3e:	08 95       	ret

00000e40 <atol>:
     e40:	1f 93       	push	r17
     e42:	fc 01       	movw	r30, r24
     e44:	99 27       	eor	r25, r25
     e46:	88 27       	eor	r24, r24
     e48:	bc 01       	movw	r22, r24
     e4a:	e8 94       	clt
     e4c:	11 91       	ld	r17, Z+
     e4e:	10 32       	cpi	r17, 0x20	; 32
     e50:	e9 f3       	breq	.-6      	; 0xe4c <atol+0xc>
     e52:	19 30       	cpi	r17, 0x09	; 9
     e54:	10 f0       	brcs	.+4      	; 0xe5a <atol+0x1a>
     e56:	1e 30       	cpi	r17, 0x0E	; 14
     e58:	c8 f3       	brcs	.-14     	; 0xe4c <atol+0xc>
     e5a:	1b 32       	cpi	r17, 0x2B	; 43
     e5c:	49 f0       	breq	.+18     	; 0xe70 <atol+0x30>
     e5e:	1d 32       	cpi	r17, 0x2D	; 45
     e60:	41 f4       	brne	.+16     	; 0xe72 <atol+0x32>
     e62:	68 94       	set
     e64:	05 c0       	rjmp	.+10     	; 0xe70 <atol+0x30>
     e66:	1b d0       	rcall	.+54     	; 0xe9e <__mulsi_const_10>
     e68:	61 0f       	add	r22, r17
     e6a:	71 1d       	adc	r23, r1
     e6c:	81 1d       	adc	r24, r1
     e6e:	91 1d       	adc	r25, r1
     e70:	11 91       	ld	r17, Z+
     e72:	10 53       	subi	r17, 0x30	; 48
     e74:	1a 30       	cpi	r17, 0x0A	; 10
     e76:	b8 f3       	brcs	.-18     	; 0xe66 <atol+0x26>
     e78:	3e f4       	brtc	.+14     	; 0xe88 <atol+0x48>
     e7a:	90 95       	com	r25
     e7c:	80 95       	com	r24
     e7e:	70 95       	com	r23
     e80:	61 95       	neg	r22
     e82:	7f 4f       	sbci	r23, 0xFF	; 255
     e84:	8f 4f       	sbci	r24, 0xFF	; 255
     e86:	9f 4f       	sbci	r25, 0xFF	; 255
     e88:	1f 91       	pop	r17
     e8a:	08 95       	ret

00000e8c <strcmp>:
     e8c:	fb 01       	movw	r30, r22
     e8e:	dc 01       	movw	r26, r24
     e90:	8d 91       	ld	r24, X+
     e92:	01 90       	ld	r0, Z+
     e94:	80 19       	sub	r24, r0
     e96:	01 10       	cpse	r0, r1
     e98:	d9 f3       	breq	.-10     	; 0xe90 <strcmp+0x4>
     e9a:	99 0b       	sbc	r25, r25
     e9c:	08 95       	ret

00000e9e <__mulsi_const_10>:
     e9e:	59 2f       	mov	r21, r25
     ea0:	48 2f       	mov	r20, r24
     ea2:	37 2f       	mov	r19, r23
     ea4:	26 2f       	mov	r18, r22
     ea6:	66 0f       	add	r22, r22
     ea8:	77 1f       	adc	r23, r23
     eaa:	88 1f       	adc	r24, r24
     eac:	99 1f       	adc	r25, r25
     eae:	66 0f       	add	r22, r22
     eb0:	77 1f       	adc	r23, r23
     eb2:	88 1f       	adc	r24, r24
     eb4:	99 1f       	adc	r25, r25
     eb6:	62 0f       	add	r22, r18
     eb8:	73 1f       	adc	r23, r19
     eba:	84 1f       	adc	r24, r20
     ebc:	95 1f       	adc	r25, r21
     ebe:	66 0f       	add	r22, r22
     ec0:	77 1f       	adc	r23, r23
     ec2:	88 1f       	adc	r24, r24
     ec4:	99 1f       	adc	r25, r25
     ec6:	08 95       	ret

00000ec8 <printf>:
     ec8:	cf 93       	push	r28
     eca:	df 93       	push	r29
     ecc:	cd b7       	in	r28, 0x3d	; 61
     ece:	de b7       	in	r29, 0x3e	; 62
     ed0:	fe 01       	movw	r30, r28
     ed2:	35 96       	adiw	r30, 0x05	; 5
     ed4:	61 91       	ld	r22, Z+
     ed6:	71 91       	ld	r23, Z+
     ed8:	af 01       	movw	r20, r30
     eda:	80 91 d4 03 	lds	r24, 0x03D4
     ede:	90 91 d5 03 	lds	r25, 0x03D5
     ee2:	63 d0       	rcall	.+198    	; 0xfaa <vfprintf>
     ee4:	df 91       	pop	r29
     ee6:	cf 91       	pop	r28
     ee8:	08 95       	ret

00000eea <putchar>:
     eea:	60 91 d4 03 	lds	r22, 0x03D4
     eee:	70 91 d5 03 	lds	r23, 0x03D5
     ef2:	5f c2       	rjmp	.+1214   	; 0x13b2 <fputc>

00000ef4 <puts>:
     ef4:	0f 93       	push	r16
     ef6:	1f 93       	push	r17
     ef8:	cf 93       	push	r28
     efa:	df 93       	push	r29
     efc:	e0 91 d4 03 	lds	r30, 0x03D4
     f00:	f0 91 d5 03 	lds	r31, 0x03D5
     f04:	23 81       	ldd	r18, Z+3	; 0x03
     f06:	21 ff       	sbrs	r18, 1
     f08:	1b c0       	rjmp	.+54     	; 0xf40 <puts+0x4c>
     f0a:	ec 01       	movw	r28, r24
     f0c:	00 e0       	ldi	r16, 0x00	; 0
     f0e:	10 e0       	ldi	r17, 0x00	; 0
     f10:	89 91       	ld	r24, Y+
     f12:	60 91 d4 03 	lds	r22, 0x03D4
     f16:	70 91 d5 03 	lds	r23, 0x03D5
     f1a:	db 01       	movw	r26, r22
     f1c:	18 96       	adiw	r26, 0x08	; 8
     f1e:	ed 91       	ld	r30, X+
     f20:	fc 91       	ld	r31, X
     f22:	19 97       	sbiw	r26, 0x09	; 9
     f24:	88 23       	and	r24, r24
     f26:	31 f0       	breq	.+12     	; 0xf34 <puts+0x40>
     f28:	09 95       	icall
     f2a:	89 2b       	or	r24, r25
     f2c:	89 f3       	breq	.-30     	; 0xf10 <puts+0x1c>
     f2e:	0f ef       	ldi	r16, 0xFF	; 255
     f30:	1f ef       	ldi	r17, 0xFF	; 255
     f32:	ee cf       	rjmp	.-36     	; 0xf10 <puts+0x1c>
     f34:	8a e0       	ldi	r24, 0x0A	; 10
     f36:	09 95       	icall
     f38:	89 2b       	or	r24, r25
     f3a:	11 f4       	brne	.+4      	; 0xf40 <puts+0x4c>
     f3c:	c8 01       	movw	r24, r16
     f3e:	02 c0       	rjmp	.+4      	; 0xf44 <puts+0x50>
     f40:	8f ef       	ldi	r24, 0xFF	; 255
     f42:	9f ef       	ldi	r25, 0xFF	; 255
     f44:	df 91       	pop	r29
     f46:	cf 91       	pop	r28
     f48:	1f 91       	pop	r17
     f4a:	0f 91       	pop	r16
     f4c:	08 95       	ret

00000f4e <sprintf>:
     f4e:	0f 93       	push	r16
     f50:	1f 93       	push	r17
     f52:	cf 93       	push	r28
     f54:	df 93       	push	r29
     f56:	cd b7       	in	r28, 0x3d	; 61
     f58:	de b7       	in	r29, 0x3e	; 62
     f5a:	2e 97       	sbiw	r28, 0x0e	; 14
     f5c:	0f b6       	in	r0, 0x3f	; 63
     f5e:	f8 94       	cli
     f60:	de bf       	out	0x3e, r29	; 62
     f62:	0f be       	out	0x3f, r0	; 63
     f64:	cd bf       	out	0x3d, r28	; 61
     f66:	0d 89       	ldd	r16, Y+21	; 0x15
     f68:	1e 89       	ldd	r17, Y+22	; 0x16
     f6a:	86 e0       	ldi	r24, 0x06	; 6
     f6c:	8c 83       	std	Y+4, r24	; 0x04
     f6e:	1a 83       	std	Y+2, r17	; 0x02
     f70:	09 83       	std	Y+1, r16	; 0x01
     f72:	8f ef       	ldi	r24, 0xFF	; 255
     f74:	9f e7       	ldi	r25, 0x7F	; 127
     f76:	9e 83       	std	Y+6, r25	; 0x06
     f78:	8d 83       	std	Y+5, r24	; 0x05
     f7a:	ae 01       	movw	r20, r28
     f7c:	47 5e       	subi	r20, 0xE7	; 231
     f7e:	5f 4f       	sbci	r21, 0xFF	; 255
     f80:	6f 89       	ldd	r22, Y+23	; 0x17
     f82:	78 8d       	ldd	r23, Y+24	; 0x18
     f84:	ce 01       	movw	r24, r28
     f86:	01 96       	adiw	r24, 0x01	; 1
     f88:	10 d0       	rcall	.+32     	; 0xfaa <vfprintf>
     f8a:	ef 81       	ldd	r30, Y+7	; 0x07
     f8c:	f8 85       	ldd	r31, Y+8	; 0x08
     f8e:	e0 0f       	add	r30, r16
     f90:	f1 1f       	adc	r31, r17
     f92:	10 82       	st	Z, r1
     f94:	2e 96       	adiw	r28, 0x0e	; 14
     f96:	0f b6       	in	r0, 0x3f	; 63
     f98:	f8 94       	cli
     f9a:	de bf       	out	0x3e, r29	; 62
     f9c:	0f be       	out	0x3f, r0	; 63
     f9e:	cd bf       	out	0x3d, r28	; 61
     fa0:	df 91       	pop	r29
     fa2:	cf 91       	pop	r28
     fa4:	1f 91       	pop	r17
     fa6:	0f 91       	pop	r16
     fa8:	08 95       	ret

00000faa <vfprintf>:
     faa:	2f 92       	push	r2
     fac:	3f 92       	push	r3
     fae:	4f 92       	push	r4
     fb0:	5f 92       	push	r5
     fb2:	6f 92       	push	r6
     fb4:	7f 92       	push	r7
     fb6:	8f 92       	push	r8
     fb8:	9f 92       	push	r9
     fba:	af 92       	push	r10
     fbc:	bf 92       	push	r11
     fbe:	cf 92       	push	r12
     fc0:	df 92       	push	r13
     fc2:	ef 92       	push	r14
     fc4:	ff 92       	push	r15
     fc6:	0f 93       	push	r16
     fc8:	1f 93       	push	r17
     fca:	cf 93       	push	r28
     fcc:	df 93       	push	r29
     fce:	cd b7       	in	r28, 0x3d	; 61
     fd0:	de b7       	in	r29, 0x3e	; 62
     fd2:	2c 97       	sbiw	r28, 0x0c	; 12
     fd4:	0f b6       	in	r0, 0x3f	; 63
     fd6:	f8 94       	cli
     fd8:	de bf       	out	0x3e, r29	; 62
     fda:	0f be       	out	0x3f, r0	; 63
     fdc:	cd bf       	out	0x3d, r28	; 61
     fde:	7c 01       	movw	r14, r24
     fe0:	6b 01       	movw	r12, r22
     fe2:	8a 01       	movw	r16, r20
     fe4:	fc 01       	movw	r30, r24
     fe6:	17 82       	std	Z+7, r1	; 0x07
     fe8:	16 82       	std	Z+6, r1	; 0x06
     fea:	83 81       	ldd	r24, Z+3	; 0x03
     fec:	81 ff       	sbrs	r24, 1
     fee:	b0 c1       	rjmp	.+864    	; 0x1350 <vfprintf+0x3a6>
     ff0:	ce 01       	movw	r24, r28
     ff2:	01 96       	adiw	r24, 0x01	; 1
     ff4:	4c 01       	movw	r8, r24
     ff6:	f7 01       	movw	r30, r14
     ff8:	93 81       	ldd	r25, Z+3	; 0x03
     ffa:	f6 01       	movw	r30, r12
     ffc:	93 fd       	sbrc	r25, 3
     ffe:	85 91       	lpm	r24, Z+
    1000:	93 ff       	sbrs	r25, 3
    1002:	81 91       	ld	r24, Z+
    1004:	6f 01       	movw	r12, r30
    1006:	88 23       	and	r24, r24
    1008:	09 f4       	brne	.+2      	; 0x100c <vfprintf+0x62>
    100a:	9e c1       	rjmp	.+828    	; 0x1348 <vfprintf+0x39e>
    100c:	85 32       	cpi	r24, 0x25	; 37
    100e:	39 f4       	brne	.+14     	; 0x101e <vfprintf+0x74>
    1010:	93 fd       	sbrc	r25, 3
    1012:	85 91       	lpm	r24, Z+
    1014:	93 ff       	sbrs	r25, 3
    1016:	81 91       	ld	r24, Z+
    1018:	6f 01       	movw	r12, r30
    101a:	85 32       	cpi	r24, 0x25	; 37
    101c:	21 f4       	brne	.+8      	; 0x1026 <vfprintf+0x7c>
    101e:	b7 01       	movw	r22, r14
    1020:	90 e0       	ldi	r25, 0x00	; 0
    1022:	c7 d1       	rcall	.+910    	; 0x13b2 <fputc>
    1024:	e8 cf       	rjmp	.-48     	; 0xff6 <vfprintf+0x4c>
    1026:	51 2c       	mov	r5, r1
    1028:	31 2c       	mov	r3, r1
    102a:	20 e0       	ldi	r18, 0x00	; 0
    102c:	20 32       	cpi	r18, 0x20	; 32
    102e:	a0 f4       	brcc	.+40     	; 0x1058 <vfprintf+0xae>
    1030:	8b 32       	cpi	r24, 0x2B	; 43
    1032:	69 f0       	breq	.+26     	; 0x104e <vfprintf+0xa4>
    1034:	30 f4       	brcc	.+12     	; 0x1042 <vfprintf+0x98>
    1036:	80 32       	cpi	r24, 0x20	; 32
    1038:	59 f0       	breq	.+22     	; 0x1050 <vfprintf+0xa6>
    103a:	83 32       	cpi	r24, 0x23	; 35
    103c:	69 f4       	brne	.+26     	; 0x1058 <vfprintf+0xae>
    103e:	20 61       	ori	r18, 0x10	; 16
    1040:	2c c0       	rjmp	.+88     	; 0x109a <vfprintf+0xf0>
    1042:	8d 32       	cpi	r24, 0x2D	; 45
    1044:	39 f0       	breq	.+14     	; 0x1054 <vfprintf+0xaa>
    1046:	80 33       	cpi	r24, 0x30	; 48
    1048:	39 f4       	brne	.+14     	; 0x1058 <vfprintf+0xae>
    104a:	21 60       	ori	r18, 0x01	; 1
    104c:	26 c0       	rjmp	.+76     	; 0x109a <vfprintf+0xf0>
    104e:	22 60       	ori	r18, 0x02	; 2
    1050:	24 60       	ori	r18, 0x04	; 4
    1052:	23 c0       	rjmp	.+70     	; 0x109a <vfprintf+0xf0>
    1054:	28 60       	ori	r18, 0x08	; 8
    1056:	21 c0       	rjmp	.+66     	; 0x109a <vfprintf+0xf0>
    1058:	27 fd       	sbrc	r18, 7
    105a:	27 c0       	rjmp	.+78     	; 0x10aa <vfprintf+0x100>
    105c:	30 ed       	ldi	r19, 0xD0	; 208
    105e:	38 0f       	add	r19, r24
    1060:	3a 30       	cpi	r19, 0x0A	; 10
    1062:	78 f4       	brcc	.+30     	; 0x1082 <vfprintf+0xd8>
    1064:	26 ff       	sbrs	r18, 6
    1066:	06 c0       	rjmp	.+12     	; 0x1074 <vfprintf+0xca>
    1068:	fa e0       	ldi	r31, 0x0A	; 10
    106a:	5f 9e       	mul	r5, r31
    106c:	30 0d       	add	r19, r0
    106e:	11 24       	eor	r1, r1
    1070:	53 2e       	mov	r5, r19
    1072:	13 c0       	rjmp	.+38     	; 0x109a <vfprintf+0xf0>
    1074:	8a e0       	ldi	r24, 0x0A	; 10
    1076:	38 9e       	mul	r3, r24
    1078:	30 0d       	add	r19, r0
    107a:	11 24       	eor	r1, r1
    107c:	33 2e       	mov	r3, r19
    107e:	20 62       	ori	r18, 0x20	; 32
    1080:	0c c0       	rjmp	.+24     	; 0x109a <vfprintf+0xf0>
    1082:	8e 32       	cpi	r24, 0x2E	; 46
    1084:	21 f4       	brne	.+8      	; 0x108e <vfprintf+0xe4>
    1086:	26 fd       	sbrc	r18, 6
    1088:	5f c1       	rjmp	.+702    	; 0x1348 <vfprintf+0x39e>
    108a:	20 64       	ori	r18, 0x40	; 64
    108c:	06 c0       	rjmp	.+12     	; 0x109a <vfprintf+0xf0>
    108e:	8c 36       	cpi	r24, 0x6C	; 108
    1090:	11 f4       	brne	.+4      	; 0x1096 <vfprintf+0xec>
    1092:	20 68       	ori	r18, 0x80	; 128
    1094:	02 c0       	rjmp	.+4      	; 0x109a <vfprintf+0xf0>
    1096:	88 36       	cpi	r24, 0x68	; 104
    1098:	41 f4       	brne	.+16     	; 0x10aa <vfprintf+0x100>
    109a:	f6 01       	movw	r30, r12
    109c:	93 fd       	sbrc	r25, 3
    109e:	85 91       	lpm	r24, Z+
    10a0:	93 ff       	sbrs	r25, 3
    10a2:	81 91       	ld	r24, Z+
    10a4:	6f 01       	movw	r12, r30
    10a6:	81 11       	cpse	r24, r1
    10a8:	c1 cf       	rjmp	.-126    	; 0x102c <vfprintf+0x82>
    10aa:	98 2f       	mov	r25, r24
    10ac:	9f 7d       	andi	r25, 0xDF	; 223
    10ae:	95 54       	subi	r25, 0x45	; 69
    10b0:	93 30       	cpi	r25, 0x03	; 3
    10b2:	28 f4       	brcc	.+10     	; 0x10be <vfprintf+0x114>
    10b4:	0c 5f       	subi	r16, 0xFC	; 252
    10b6:	1f 4f       	sbci	r17, 0xFF	; 255
    10b8:	ff e3       	ldi	r31, 0x3F	; 63
    10ba:	f9 83       	std	Y+1, r31	; 0x01
    10bc:	0d c0       	rjmp	.+26     	; 0x10d8 <vfprintf+0x12e>
    10be:	83 36       	cpi	r24, 0x63	; 99
    10c0:	31 f0       	breq	.+12     	; 0x10ce <vfprintf+0x124>
    10c2:	83 37       	cpi	r24, 0x73	; 115
    10c4:	71 f0       	breq	.+28     	; 0x10e2 <vfprintf+0x138>
    10c6:	83 35       	cpi	r24, 0x53	; 83
    10c8:	09 f0       	breq	.+2      	; 0x10cc <vfprintf+0x122>
    10ca:	57 c0       	rjmp	.+174    	; 0x117a <vfprintf+0x1d0>
    10cc:	21 c0       	rjmp	.+66     	; 0x1110 <vfprintf+0x166>
    10ce:	f8 01       	movw	r30, r16
    10d0:	80 81       	ld	r24, Z
    10d2:	89 83       	std	Y+1, r24	; 0x01
    10d4:	0e 5f       	subi	r16, 0xFE	; 254
    10d6:	1f 4f       	sbci	r17, 0xFF	; 255
    10d8:	44 24       	eor	r4, r4
    10da:	43 94       	inc	r4
    10dc:	51 2c       	mov	r5, r1
    10de:	54 01       	movw	r10, r8
    10e0:	14 c0       	rjmp	.+40     	; 0x110a <vfprintf+0x160>
    10e2:	38 01       	movw	r6, r16
    10e4:	f2 e0       	ldi	r31, 0x02	; 2
    10e6:	6f 0e       	add	r6, r31
    10e8:	71 1c       	adc	r7, r1
    10ea:	f8 01       	movw	r30, r16
    10ec:	a0 80       	ld	r10, Z
    10ee:	b1 80       	ldd	r11, Z+1	; 0x01
    10f0:	26 ff       	sbrs	r18, 6
    10f2:	03 c0       	rjmp	.+6      	; 0x10fa <vfprintf+0x150>
    10f4:	65 2d       	mov	r22, r5
    10f6:	70 e0       	ldi	r23, 0x00	; 0
    10f8:	02 c0       	rjmp	.+4      	; 0x10fe <vfprintf+0x154>
    10fa:	6f ef       	ldi	r22, 0xFF	; 255
    10fc:	7f ef       	ldi	r23, 0xFF	; 255
    10fe:	c5 01       	movw	r24, r10
    1100:	2c 87       	std	Y+12, r18	; 0x0c
    1102:	4c d1       	rcall	.+664    	; 0x139c <strnlen>
    1104:	2c 01       	movw	r4, r24
    1106:	83 01       	movw	r16, r6
    1108:	2c 85       	ldd	r18, Y+12	; 0x0c
    110a:	2f 77       	andi	r18, 0x7F	; 127
    110c:	22 2e       	mov	r2, r18
    110e:	16 c0       	rjmp	.+44     	; 0x113c <vfprintf+0x192>
    1110:	38 01       	movw	r6, r16
    1112:	f2 e0       	ldi	r31, 0x02	; 2
    1114:	6f 0e       	add	r6, r31
    1116:	71 1c       	adc	r7, r1
    1118:	f8 01       	movw	r30, r16
    111a:	a0 80       	ld	r10, Z
    111c:	b1 80       	ldd	r11, Z+1	; 0x01
    111e:	26 ff       	sbrs	r18, 6
    1120:	03 c0       	rjmp	.+6      	; 0x1128 <vfprintf+0x17e>
    1122:	65 2d       	mov	r22, r5
    1124:	70 e0       	ldi	r23, 0x00	; 0
    1126:	02 c0       	rjmp	.+4      	; 0x112c <vfprintf+0x182>
    1128:	6f ef       	ldi	r22, 0xFF	; 255
    112a:	7f ef       	ldi	r23, 0xFF	; 255
    112c:	c5 01       	movw	r24, r10
    112e:	2c 87       	std	Y+12, r18	; 0x0c
    1130:	2a d1       	rcall	.+596    	; 0x1386 <strnlen_P>
    1132:	2c 01       	movw	r4, r24
    1134:	2c 85       	ldd	r18, Y+12	; 0x0c
    1136:	20 68       	ori	r18, 0x80	; 128
    1138:	22 2e       	mov	r2, r18
    113a:	83 01       	movw	r16, r6
    113c:	23 fc       	sbrc	r2, 3
    113e:	19 c0       	rjmp	.+50     	; 0x1172 <vfprintf+0x1c8>
    1140:	83 2d       	mov	r24, r3
    1142:	90 e0       	ldi	r25, 0x00	; 0
    1144:	48 16       	cp	r4, r24
    1146:	59 06       	cpc	r5, r25
    1148:	a0 f4       	brcc	.+40     	; 0x1172 <vfprintf+0x1c8>
    114a:	b7 01       	movw	r22, r14
    114c:	80 e2       	ldi	r24, 0x20	; 32
    114e:	90 e0       	ldi	r25, 0x00	; 0
    1150:	30 d1       	rcall	.+608    	; 0x13b2 <fputc>
    1152:	3a 94       	dec	r3
    1154:	f5 cf       	rjmp	.-22     	; 0x1140 <vfprintf+0x196>
    1156:	f5 01       	movw	r30, r10
    1158:	27 fc       	sbrc	r2, 7
    115a:	85 91       	lpm	r24, Z+
    115c:	27 fe       	sbrs	r2, 7
    115e:	81 91       	ld	r24, Z+
    1160:	5f 01       	movw	r10, r30
    1162:	b7 01       	movw	r22, r14
    1164:	90 e0       	ldi	r25, 0x00	; 0
    1166:	25 d1       	rcall	.+586    	; 0x13b2 <fputc>
    1168:	31 10       	cpse	r3, r1
    116a:	3a 94       	dec	r3
    116c:	f1 e0       	ldi	r31, 0x01	; 1
    116e:	4f 1a       	sub	r4, r31
    1170:	51 08       	sbc	r5, r1
    1172:	41 14       	cp	r4, r1
    1174:	51 04       	cpc	r5, r1
    1176:	79 f7       	brne	.-34     	; 0x1156 <vfprintf+0x1ac>
    1178:	de c0       	rjmp	.+444    	; 0x1336 <vfprintf+0x38c>
    117a:	84 36       	cpi	r24, 0x64	; 100
    117c:	11 f0       	breq	.+4      	; 0x1182 <vfprintf+0x1d8>
    117e:	89 36       	cpi	r24, 0x69	; 105
    1180:	31 f5       	brne	.+76     	; 0x11ce <vfprintf+0x224>
    1182:	f8 01       	movw	r30, r16
    1184:	27 ff       	sbrs	r18, 7
    1186:	07 c0       	rjmp	.+14     	; 0x1196 <vfprintf+0x1ec>
    1188:	60 81       	ld	r22, Z
    118a:	71 81       	ldd	r23, Z+1	; 0x01
    118c:	82 81       	ldd	r24, Z+2	; 0x02
    118e:	93 81       	ldd	r25, Z+3	; 0x03
    1190:	0c 5f       	subi	r16, 0xFC	; 252
    1192:	1f 4f       	sbci	r17, 0xFF	; 255
    1194:	08 c0       	rjmp	.+16     	; 0x11a6 <vfprintf+0x1fc>
    1196:	60 81       	ld	r22, Z
    1198:	71 81       	ldd	r23, Z+1	; 0x01
    119a:	88 27       	eor	r24, r24
    119c:	77 fd       	sbrc	r23, 7
    119e:	80 95       	com	r24
    11a0:	98 2f       	mov	r25, r24
    11a2:	0e 5f       	subi	r16, 0xFE	; 254
    11a4:	1f 4f       	sbci	r17, 0xFF	; 255
    11a6:	2f 76       	andi	r18, 0x6F	; 111
    11a8:	b2 2e       	mov	r11, r18
    11aa:	97 ff       	sbrs	r25, 7
    11ac:	09 c0       	rjmp	.+18     	; 0x11c0 <vfprintf+0x216>
    11ae:	90 95       	com	r25
    11b0:	80 95       	com	r24
    11b2:	70 95       	com	r23
    11b4:	61 95       	neg	r22
    11b6:	7f 4f       	sbci	r23, 0xFF	; 255
    11b8:	8f 4f       	sbci	r24, 0xFF	; 255
    11ba:	9f 4f       	sbci	r25, 0xFF	; 255
    11bc:	20 68       	ori	r18, 0x80	; 128
    11be:	b2 2e       	mov	r11, r18
    11c0:	2a e0       	ldi	r18, 0x0A	; 10
    11c2:	30 e0       	ldi	r19, 0x00	; 0
    11c4:	a4 01       	movw	r20, r8
    11c6:	27 d1       	rcall	.+590    	; 0x1416 <__ultoa_invert>
    11c8:	a8 2e       	mov	r10, r24
    11ca:	a8 18       	sub	r10, r8
    11cc:	43 c0       	rjmp	.+134    	; 0x1254 <vfprintf+0x2aa>
    11ce:	85 37       	cpi	r24, 0x75	; 117
    11d0:	29 f4       	brne	.+10     	; 0x11dc <vfprintf+0x232>
    11d2:	2f 7e       	andi	r18, 0xEF	; 239
    11d4:	b2 2e       	mov	r11, r18
    11d6:	2a e0       	ldi	r18, 0x0A	; 10
    11d8:	30 e0       	ldi	r19, 0x00	; 0
    11da:	25 c0       	rjmp	.+74     	; 0x1226 <vfprintf+0x27c>
    11dc:	f2 2f       	mov	r31, r18
    11de:	f9 7f       	andi	r31, 0xF9	; 249
    11e0:	bf 2e       	mov	r11, r31
    11e2:	8f 36       	cpi	r24, 0x6F	; 111
    11e4:	c1 f0       	breq	.+48     	; 0x1216 <vfprintf+0x26c>
    11e6:	18 f4       	brcc	.+6      	; 0x11ee <vfprintf+0x244>
    11e8:	88 35       	cpi	r24, 0x58	; 88
    11ea:	79 f0       	breq	.+30     	; 0x120a <vfprintf+0x260>
    11ec:	ad c0       	rjmp	.+346    	; 0x1348 <vfprintf+0x39e>
    11ee:	80 37       	cpi	r24, 0x70	; 112
    11f0:	19 f0       	breq	.+6      	; 0x11f8 <vfprintf+0x24e>
    11f2:	88 37       	cpi	r24, 0x78	; 120
    11f4:	21 f0       	breq	.+8      	; 0x11fe <vfprintf+0x254>
    11f6:	a8 c0       	rjmp	.+336    	; 0x1348 <vfprintf+0x39e>
    11f8:	2f 2f       	mov	r18, r31
    11fa:	20 61       	ori	r18, 0x10	; 16
    11fc:	b2 2e       	mov	r11, r18
    11fe:	b4 fe       	sbrs	r11, 4
    1200:	0d c0       	rjmp	.+26     	; 0x121c <vfprintf+0x272>
    1202:	8b 2d       	mov	r24, r11
    1204:	84 60       	ori	r24, 0x04	; 4
    1206:	b8 2e       	mov	r11, r24
    1208:	09 c0       	rjmp	.+18     	; 0x121c <vfprintf+0x272>
    120a:	24 ff       	sbrs	r18, 4
    120c:	0a c0       	rjmp	.+20     	; 0x1222 <vfprintf+0x278>
    120e:	9f 2f       	mov	r25, r31
    1210:	96 60       	ori	r25, 0x06	; 6
    1212:	b9 2e       	mov	r11, r25
    1214:	06 c0       	rjmp	.+12     	; 0x1222 <vfprintf+0x278>
    1216:	28 e0       	ldi	r18, 0x08	; 8
    1218:	30 e0       	ldi	r19, 0x00	; 0
    121a:	05 c0       	rjmp	.+10     	; 0x1226 <vfprintf+0x27c>
    121c:	20 e1       	ldi	r18, 0x10	; 16
    121e:	30 e0       	ldi	r19, 0x00	; 0
    1220:	02 c0       	rjmp	.+4      	; 0x1226 <vfprintf+0x27c>
    1222:	20 e1       	ldi	r18, 0x10	; 16
    1224:	32 e0       	ldi	r19, 0x02	; 2
    1226:	f8 01       	movw	r30, r16
    1228:	b7 fe       	sbrs	r11, 7
    122a:	07 c0       	rjmp	.+14     	; 0x123a <vfprintf+0x290>
    122c:	60 81       	ld	r22, Z
    122e:	71 81       	ldd	r23, Z+1	; 0x01
    1230:	82 81       	ldd	r24, Z+2	; 0x02
    1232:	93 81       	ldd	r25, Z+3	; 0x03
    1234:	0c 5f       	subi	r16, 0xFC	; 252
    1236:	1f 4f       	sbci	r17, 0xFF	; 255
    1238:	06 c0       	rjmp	.+12     	; 0x1246 <vfprintf+0x29c>
    123a:	60 81       	ld	r22, Z
    123c:	71 81       	ldd	r23, Z+1	; 0x01
    123e:	80 e0       	ldi	r24, 0x00	; 0
    1240:	90 e0       	ldi	r25, 0x00	; 0
    1242:	0e 5f       	subi	r16, 0xFE	; 254
    1244:	1f 4f       	sbci	r17, 0xFF	; 255
    1246:	a4 01       	movw	r20, r8
    1248:	e6 d0       	rcall	.+460    	; 0x1416 <__ultoa_invert>
    124a:	a8 2e       	mov	r10, r24
    124c:	a8 18       	sub	r10, r8
    124e:	fb 2d       	mov	r31, r11
    1250:	ff 77       	andi	r31, 0x7F	; 127
    1252:	bf 2e       	mov	r11, r31
    1254:	b6 fe       	sbrs	r11, 6
    1256:	0b c0       	rjmp	.+22     	; 0x126e <vfprintf+0x2c4>
    1258:	2b 2d       	mov	r18, r11
    125a:	2e 7f       	andi	r18, 0xFE	; 254
    125c:	a5 14       	cp	r10, r5
    125e:	50 f4       	brcc	.+20     	; 0x1274 <vfprintf+0x2ca>
    1260:	b4 fe       	sbrs	r11, 4
    1262:	0a c0       	rjmp	.+20     	; 0x1278 <vfprintf+0x2ce>
    1264:	b2 fc       	sbrc	r11, 2
    1266:	08 c0       	rjmp	.+16     	; 0x1278 <vfprintf+0x2ce>
    1268:	2b 2d       	mov	r18, r11
    126a:	2e 7e       	andi	r18, 0xEE	; 238
    126c:	05 c0       	rjmp	.+10     	; 0x1278 <vfprintf+0x2ce>
    126e:	7a 2c       	mov	r7, r10
    1270:	2b 2d       	mov	r18, r11
    1272:	03 c0       	rjmp	.+6      	; 0x127a <vfprintf+0x2d0>
    1274:	7a 2c       	mov	r7, r10
    1276:	01 c0       	rjmp	.+2      	; 0x127a <vfprintf+0x2d0>
    1278:	75 2c       	mov	r7, r5
    127a:	24 ff       	sbrs	r18, 4
    127c:	0d c0       	rjmp	.+26     	; 0x1298 <vfprintf+0x2ee>
    127e:	fe 01       	movw	r30, r28
    1280:	ea 0d       	add	r30, r10
    1282:	f1 1d       	adc	r31, r1
    1284:	80 81       	ld	r24, Z
    1286:	80 33       	cpi	r24, 0x30	; 48
    1288:	11 f4       	brne	.+4      	; 0x128e <vfprintf+0x2e4>
    128a:	29 7e       	andi	r18, 0xE9	; 233
    128c:	09 c0       	rjmp	.+18     	; 0x12a0 <vfprintf+0x2f6>
    128e:	22 ff       	sbrs	r18, 2
    1290:	06 c0       	rjmp	.+12     	; 0x129e <vfprintf+0x2f4>
    1292:	73 94       	inc	r7
    1294:	73 94       	inc	r7
    1296:	04 c0       	rjmp	.+8      	; 0x12a0 <vfprintf+0x2f6>
    1298:	82 2f       	mov	r24, r18
    129a:	86 78       	andi	r24, 0x86	; 134
    129c:	09 f0       	breq	.+2      	; 0x12a0 <vfprintf+0x2f6>
    129e:	73 94       	inc	r7
    12a0:	23 fd       	sbrc	r18, 3
    12a2:	12 c0       	rjmp	.+36     	; 0x12c8 <vfprintf+0x31e>
    12a4:	20 ff       	sbrs	r18, 0
    12a6:	06 c0       	rjmp	.+12     	; 0x12b4 <vfprintf+0x30a>
    12a8:	5a 2c       	mov	r5, r10
    12aa:	73 14       	cp	r7, r3
    12ac:	18 f4       	brcc	.+6      	; 0x12b4 <vfprintf+0x30a>
    12ae:	53 0c       	add	r5, r3
    12b0:	57 18       	sub	r5, r7
    12b2:	73 2c       	mov	r7, r3
    12b4:	73 14       	cp	r7, r3
    12b6:	60 f4       	brcc	.+24     	; 0x12d0 <vfprintf+0x326>
    12b8:	b7 01       	movw	r22, r14
    12ba:	80 e2       	ldi	r24, 0x20	; 32
    12bc:	90 e0       	ldi	r25, 0x00	; 0
    12be:	2c 87       	std	Y+12, r18	; 0x0c
    12c0:	78 d0       	rcall	.+240    	; 0x13b2 <fputc>
    12c2:	73 94       	inc	r7
    12c4:	2c 85       	ldd	r18, Y+12	; 0x0c
    12c6:	f6 cf       	rjmp	.-20     	; 0x12b4 <vfprintf+0x30a>
    12c8:	73 14       	cp	r7, r3
    12ca:	10 f4       	brcc	.+4      	; 0x12d0 <vfprintf+0x326>
    12cc:	37 18       	sub	r3, r7
    12ce:	01 c0       	rjmp	.+2      	; 0x12d2 <vfprintf+0x328>
    12d0:	31 2c       	mov	r3, r1
    12d2:	24 ff       	sbrs	r18, 4
    12d4:	11 c0       	rjmp	.+34     	; 0x12f8 <vfprintf+0x34e>
    12d6:	b7 01       	movw	r22, r14
    12d8:	80 e3       	ldi	r24, 0x30	; 48
    12da:	90 e0       	ldi	r25, 0x00	; 0
    12dc:	2c 87       	std	Y+12, r18	; 0x0c
    12de:	69 d0       	rcall	.+210    	; 0x13b2 <fputc>
    12e0:	2c 85       	ldd	r18, Y+12	; 0x0c
    12e2:	22 ff       	sbrs	r18, 2
    12e4:	16 c0       	rjmp	.+44     	; 0x1312 <vfprintf+0x368>
    12e6:	21 ff       	sbrs	r18, 1
    12e8:	03 c0       	rjmp	.+6      	; 0x12f0 <vfprintf+0x346>
    12ea:	88 e5       	ldi	r24, 0x58	; 88
    12ec:	90 e0       	ldi	r25, 0x00	; 0
    12ee:	02 c0       	rjmp	.+4      	; 0x12f4 <vfprintf+0x34a>
    12f0:	88 e7       	ldi	r24, 0x78	; 120
    12f2:	90 e0       	ldi	r25, 0x00	; 0
    12f4:	b7 01       	movw	r22, r14
    12f6:	0c c0       	rjmp	.+24     	; 0x1310 <vfprintf+0x366>
    12f8:	82 2f       	mov	r24, r18
    12fa:	86 78       	andi	r24, 0x86	; 134
    12fc:	51 f0       	breq	.+20     	; 0x1312 <vfprintf+0x368>
    12fe:	21 fd       	sbrc	r18, 1
    1300:	02 c0       	rjmp	.+4      	; 0x1306 <vfprintf+0x35c>
    1302:	80 e2       	ldi	r24, 0x20	; 32
    1304:	01 c0       	rjmp	.+2      	; 0x1308 <vfprintf+0x35e>
    1306:	8b e2       	ldi	r24, 0x2B	; 43
    1308:	27 fd       	sbrc	r18, 7
    130a:	8d e2       	ldi	r24, 0x2D	; 45
    130c:	b7 01       	movw	r22, r14
    130e:	90 e0       	ldi	r25, 0x00	; 0
    1310:	50 d0       	rcall	.+160    	; 0x13b2 <fputc>
    1312:	a5 14       	cp	r10, r5
    1314:	30 f4       	brcc	.+12     	; 0x1322 <vfprintf+0x378>
    1316:	b7 01       	movw	r22, r14
    1318:	80 e3       	ldi	r24, 0x30	; 48
    131a:	90 e0       	ldi	r25, 0x00	; 0
    131c:	4a d0       	rcall	.+148    	; 0x13b2 <fputc>
    131e:	5a 94       	dec	r5
    1320:	f8 cf       	rjmp	.-16     	; 0x1312 <vfprintf+0x368>
    1322:	aa 94       	dec	r10
    1324:	f4 01       	movw	r30, r8
    1326:	ea 0d       	add	r30, r10
    1328:	f1 1d       	adc	r31, r1
    132a:	80 81       	ld	r24, Z
    132c:	b7 01       	movw	r22, r14
    132e:	90 e0       	ldi	r25, 0x00	; 0
    1330:	40 d0       	rcall	.+128    	; 0x13b2 <fputc>
    1332:	a1 10       	cpse	r10, r1
    1334:	f6 cf       	rjmp	.-20     	; 0x1322 <vfprintf+0x378>
    1336:	33 20       	and	r3, r3
    1338:	09 f4       	brne	.+2      	; 0x133c <vfprintf+0x392>
    133a:	5d ce       	rjmp	.-838    	; 0xff6 <vfprintf+0x4c>
    133c:	b7 01       	movw	r22, r14
    133e:	80 e2       	ldi	r24, 0x20	; 32
    1340:	90 e0       	ldi	r25, 0x00	; 0
    1342:	37 d0       	rcall	.+110    	; 0x13b2 <fputc>
    1344:	3a 94       	dec	r3
    1346:	f7 cf       	rjmp	.-18     	; 0x1336 <vfprintf+0x38c>
    1348:	f7 01       	movw	r30, r14
    134a:	86 81       	ldd	r24, Z+6	; 0x06
    134c:	97 81       	ldd	r25, Z+7	; 0x07
    134e:	02 c0       	rjmp	.+4      	; 0x1354 <vfprintf+0x3aa>
    1350:	8f ef       	ldi	r24, 0xFF	; 255
    1352:	9f ef       	ldi	r25, 0xFF	; 255
    1354:	2c 96       	adiw	r28, 0x0c	; 12
    1356:	0f b6       	in	r0, 0x3f	; 63
    1358:	f8 94       	cli
    135a:	de bf       	out	0x3e, r29	; 62
    135c:	0f be       	out	0x3f, r0	; 63
    135e:	cd bf       	out	0x3d, r28	; 61
    1360:	df 91       	pop	r29
    1362:	cf 91       	pop	r28
    1364:	1f 91       	pop	r17
    1366:	0f 91       	pop	r16
    1368:	ff 90       	pop	r15
    136a:	ef 90       	pop	r14
    136c:	df 90       	pop	r13
    136e:	cf 90       	pop	r12
    1370:	bf 90       	pop	r11
    1372:	af 90       	pop	r10
    1374:	9f 90       	pop	r9
    1376:	8f 90       	pop	r8
    1378:	7f 90       	pop	r7
    137a:	6f 90       	pop	r6
    137c:	5f 90       	pop	r5
    137e:	4f 90       	pop	r4
    1380:	3f 90       	pop	r3
    1382:	2f 90       	pop	r2
    1384:	08 95       	ret

00001386 <strnlen_P>:
    1386:	fc 01       	movw	r30, r24
    1388:	05 90       	lpm	r0, Z+
    138a:	61 50       	subi	r22, 0x01	; 1
    138c:	70 40       	sbci	r23, 0x00	; 0
    138e:	01 10       	cpse	r0, r1
    1390:	d8 f7       	brcc	.-10     	; 0x1388 <strnlen_P+0x2>
    1392:	80 95       	com	r24
    1394:	90 95       	com	r25
    1396:	8e 0f       	add	r24, r30
    1398:	9f 1f       	adc	r25, r31
    139a:	08 95       	ret

0000139c <strnlen>:
    139c:	fc 01       	movw	r30, r24
    139e:	61 50       	subi	r22, 0x01	; 1
    13a0:	70 40       	sbci	r23, 0x00	; 0
    13a2:	01 90       	ld	r0, Z+
    13a4:	01 10       	cpse	r0, r1
    13a6:	d8 f7       	brcc	.-10     	; 0x139e <strnlen+0x2>
    13a8:	80 95       	com	r24
    13aa:	90 95       	com	r25
    13ac:	8e 0f       	add	r24, r30
    13ae:	9f 1f       	adc	r25, r31
    13b0:	08 95       	ret

000013b2 <fputc>:
    13b2:	0f 93       	push	r16
    13b4:	1f 93       	push	r17
    13b6:	cf 93       	push	r28
    13b8:	df 93       	push	r29
    13ba:	18 2f       	mov	r17, r24
    13bc:	09 2f       	mov	r16, r25
    13be:	eb 01       	movw	r28, r22
    13c0:	8b 81       	ldd	r24, Y+3	; 0x03
    13c2:	81 fd       	sbrc	r24, 1
    13c4:	03 c0       	rjmp	.+6      	; 0x13cc <fputc+0x1a>
    13c6:	8f ef       	ldi	r24, 0xFF	; 255
    13c8:	9f ef       	ldi	r25, 0xFF	; 255
    13ca:	20 c0       	rjmp	.+64     	; 0x140c <fputc+0x5a>
    13cc:	82 ff       	sbrs	r24, 2
    13ce:	10 c0       	rjmp	.+32     	; 0x13f0 <fputc+0x3e>
    13d0:	4e 81       	ldd	r20, Y+6	; 0x06
    13d2:	5f 81       	ldd	r21, Y+7	; 0x07
    13d4:	2c 81       	ldd	r18, Y+4	; 0x04
    13d6:	3d 81       	ldd	r19, Y+5	; 0x05
    13d8:	42 17       	cp	r20, r18
    13da:	53 07       	cpc	r21, r19
    13dc:	7c f4       	brge	.+30     	; 0x13fc <fputc+0x4a>
    13de:	e8 81       	ld	r30, Y
    13e0:	f9 81       	ldd	r31, Y+1	; 0x01
    13e2:	9f 01       	movw	r18, r30
    13e4:	2f 5f       	subi	r18, 0xFF	; 255
    13e6:	3f 4f       	sbci	r19, 0xFF	; 255
    13e8:	39 83       	std	Y+1, r19	; 0x01
    13ea:	28 83       	st	Y, r18
    13ec:	10 83       	st	Z, r17
    13ee:	06 c0       	rjmp	.+12     	; 0x13fc <fputc+0x4a>
    13f0:	e8 85       	ldd	r30, Y+8	; 0x08
    13f2:	f9 85       	ldd	r31, Y+9	; 0x09
    13f4:	81 2f       	mov	r24, r17
    13f6:	09 95       	icall
    13f8:	89 2b       	or	r24, r25
    13fa:	29 f7       	brne	.-54     	; 0x13c6 <fputc+0x14>
    13fc:	2e 81       	ldd	r18, Y+6	; 0x06
    13fe:	3f 81       	ldd	r19, Y+7	; 0x07
    1400:	2f 5f       	subi	r18, 0xFF	; 255
    1402:	3f 4f       	sbci	r19, 0xFF	; 255
    1404:	3f 83       	std	Y+7, r19	; 0x07
    1406:	2e 83       	std	Y+6, r18	; 0x06
    1408:	81 2f       	mov	r24, r17
    140a:	90 2f       	mov	r25, r16
    140c:	df 91       	pop	r29
    140e:	cf 91       	pop	r28
    1410:	1f 91       	pop	r17
    1412:	0f 91       	pop	r16
    1414:	08 95       	ret

00001416 <__ultoa_invert>:
    1416:	fa 01       	movw	r30, r20
    1418:	aa 27       	eor	r26, r26
    141a:	28 30       	cpi	r18, 0x08	; 8
    141c:	51 f1       	breq	.+84     	; 0x1472 <__ultoa_invert+0x5c>
    141e:	20 31       	cpi	r18, 0x10	; 16
    1420:	81 f1       	breq	.+96     	; 0x1482 <__ultoa_invert+0x6c>
    1422:	e8 94       	clt
    1424:	6f 93       	push	r22
    1426:	6e 7f       	andi	r22, 0xFE	; 254
    1428:	6e 5f       	subi	r22, 0xFE	; 254
    142a:	7f 4f       	sbci	r23, 0xFF	; 255
    142c:	8f 4f       	sbci	r24, 0xFF	; 255
    142e:	9f 4f       	sbci	r25, 0xFF	; 255
    1430:	af 4f       	sbci	r26, 0xFF	; 255
    1432:	b1 e0       	ldi	r27, 0x01	; 1
    1434:	3e d0       	rcall	.+124    	; 0x14b2 <__ultoa_invert+0x9c>
    1436:	b4 e0       	ldi	r27, 0x04	; 4
    1438:	3c d0       	rcall	.+120    	; 0x14b2 <__ultoa_invert+0x9c>
    143a:	67 0f       	add	r22, r23
    143c:	78 1f       	adc	r23, r24
    143e:	89 1f       	adc	r24, r25
    1440:	9a 1f       	adc	r25, r26
    1442:	a1 1d       	adc	r26, r1
    1444:	68 0f       	add	r22, r24
    1446:	79 1f       	adc	r23, r25
    1448:	8a 1f       	adc	r24, r26
    144a:	91 1d       	adc	r25, r1
    144c:	a1 1d       	adc	r26, r1
    144e:	6a 0f       	add	r22, r26
    1450:	71 1d       	adc	r23, r1
    1452:	81 1d       	adc	r24, r1
    1454:	91 1d       	adc	r25, r1
    1456:	a1 1d       	adc	r26, r1
    1458:	20 d0       	rcall	.+64     	; 0x149a <__ultoa_invert+0x84>
    145a:	09 f4       	brne	.+2      	; 0x145e <__ultoa_invert+0x48>
    145c:	68 94       	set
    145e:	3f 91       	pop	r19
    1460:	2a e0       	ldi	r18, 0x0A	; 10
    1462:	26 9f       	mul	r18, r22
    1464:	11 24       	eor	r1, r1
    1466:	30 19       	sub	r19, r0
    1468:	30 5d       	subi	r19, 0xD0	; 208
    146a:	31 93       	st	Z+, r19
    146c:	de f6       	brtc	.-74     	; 0x1424 <__ultoa_invert+0xe>
    146e:	cf 01       	movw	r24, r30
    1470:	08 95       	ret
    1472:	46 2f       	mov	r20, r22
    1474:	47 70       	andi	r20, 0x07	; 7
    1476:	40 5d       	subi	r20, 0xD0	; 208
    1478:	41 93       	st	Z+, r20
    147a:	b3 e0       	ldi	r27, 0x03	; 3
    147c:	0f d0       	rcall	.+30     	; 0x149c <__ultoa_invert+0x86>
    147e:	c9 f7       	brne	.-14     	; 0x1472 <__ultoa_invert+0x5c>
    1480:	f6 cf       	rjmp	.-20     	; 0x146e <__ultoa_invert+0x58>
    1482:	46 2f       	mov	r20, r22
    1484:	4f 70       	andi	r20, 0x0F	; 15
    1486:	40 5d       	subi	r20, 0xD0	; 208
    1488:	4a 33       	cpi	r20, 0x3A	; 58
    148a:	18 f0       	brcs	.+6      	; 0x1492 <__ultoa_invert+0x7c>
    148c:	49 5d       	subi	r20, 0xD9	; 217
    148e:	31 fd       	sbrc	r19, 1
    1490:	40 52       	subi	r20, 0x20	; 32
    1492:	41 93       	st	Z+, r20
    1494:	02 d0       	rcall	.+4      	; 0x149a <__ultoa_invert+0x84>
    1496:	a9 f7       	brne	.-22     	; 0x1482 <__ultoa_invert+0x6c>
    1498:	ea cf       	rjmp	.-44     	; 0x146e <__ultoa_invert+0x58>
    149a:	b4 e0       	ldi	r27, 0x04	; 4
    149c:	a6 95       	lsr	r26
    149e:	97 95       	ror	r25
    14a0:	87 95       	ror	r24
    14a2:	77 95       	ror	r23
    14a4:	67 95       	ror	r22
    14a6:	ba 95       	dec	r27
    14a8:	c9 f7       	brne	.-14     	; 0x149c <__ultoa_invert+0x86>
    14aa:	00 97       	sbiw	r24, 0x00	; 0
    14ac:	61 05       	cpc	r22, r1
    14ae:	71 05       	cpc	r23, r1
    14b0:	08 95       	ret
    14b2:	9b 01       	movw	r18, r22
    14b4:	ac 01       	movw	r20, r24
    14b6:	0a 2e       	mov	r0, r26
    14b8:	06 94       	lsr	r0
    14ba:	57 95       	ror	r21
    14bc:	47 95       	ror	r20
    14be:	37 95       	ror	r19
    14c0:	27 95       	ror	r18
    14c2:	ba 95       	dec	r27
    14c4:	c9 f7       	brne	.-14     	; 0x14b8 <__ultoa_invert+0xa2>
    14c6:	62 0f       	add	r22, r18
    14c8:	73 1f       	adc	r23, r19
    14ca:	84 1f       	adc	r24, r20
    14cc:	95 1f       	adc	r25, r21
    14ce:	a0 1d       	adc	r26, r0
    14d0:	08 95       	ret

000014d2 <__mulshisi3>:
    14d2:	b7 ff       	sbrs	r27, 7
    14d4:	45 cc       	rjmp	.-1910   	; 0xd60 <__muluhisi3>

000014d6 <__mulohisi3>:
    14d6:	44 dc       	rcall	.-1912   	; 0xd60 <__muluhisi3>
    14d8:	82 1b       	sub	r24, r18
    14da:	93 0b       	sbc	r25, r19
    14dc:	08 95       	ret

000014de <_exit>:
    14de:	f8 94       	cli

000014e0 <__stop_program>:
    14e0:	ff cf       	rjmp	.-2      	; 0x14e0 <__stop_program>
