
Attacker_6_2.elf:     file format elf32-avr

Sections:
Idx Name          Size      VMA       LMA       File off  Algn
  0 .data         0000009c  00800200  00001584  00001618  2**0
                  CONTENTS, ALLOC, LOAD, DATA
  1 .text         00001584  00000000  00000000  00000094  2**1
                  CONTENTS, ALLOC, LOAD, READONLY, CODE
  2 .bss          0000018b  0080029c  0080029c  000016b4  2**0
                  ALLOC
  3 .comment      0000005c  00000000  00000000  000016b4  2**0
                  CONTENTS, READONLY
  4 .debug_aranges 00000108  00000000  00000000  00001710  2**0
                  CONTENTS, READONLY, DEBUGGING
  5 .debug_info   00001764  00000000  00000000  00001818  2**0
                  CONTENTS, READONLY, DEBUGGING
  6 .debug_abbrev 000008c9  00000000  00000000  00002f7c  2**0
                  CONTENTS, READONLY, DEBUGGING
  7 .debug_line   00000a93  00000000  00000000  00003845  2**0
                  CONTENTS, READONLY, DEBUGGING
  8 .debug_frame  000004ec  00000000  00000000  000042d8  2**2
                  CONTENTS, READONLY, DEBUGGING
  9 .debug_str    0000070b  00000000  00000000  000047c4  2**0
                  CONTENTS, READONLY, DEBUGGING
 10 .debug_loc    00000daa  00000000  00000000  00004ecf  2**0
                  CONTENTS, READONLY, DEBUGGING
 11 .debug_ranges 00000050  00000000  00000000  00005c79  2**0
                  CONTENTS, READONLY, DEBUGGING

Disassembly of section .text:

00000000 <__vectors>:
       0:	8f c0       	rjmp	.+286    	; 0x120 <__ctors_end>
       2:	00 00       	nop
       4:	ab c0       	rjmp	.+342    	; 0x15c <__bad_interrupt>
       6:	00 00       	nop
       8:	a9 c0       	rjmp	.+338    	; 0x15c <__bad_interrupt>
       a:	00 00       	nop
       c:	a7 c0       	rjmp	.+334    	; 0x15c <__bad_interrupt>
       e:	00 00       	nop
      10:	a5 c0       	rjmp	.+330    	; 0x15c <__bad_interrupt>
      12:	00 00       	nop
      14:	a3 c0       	rjmp	.+326    	; 0x15c <__bad_interrupt>
      16:	00 00       	nop
      18:	a1 c0       	rjmp	.+322    	; 0x15c <__bad_interrupt>
      1a:	00 00       	nop
      1c:	9f c0       	rjmp	.+318    	; 0x15c <__bad_interrupt>
      1e:	00 00       	nop
      20:	9d c0       	rjmp	.+314    	; 0x15c <__bad_interrupt>
      22:	00 00       	nop
      24:	9b c0       	rjmp	.+310    	; 0x15c <__bad_interrupt>
      26:	00 00       	nop
      28:	99 c0       	rjmp	.+306    	; 0x15c <__bad_interrupt>
      2a:	00 00       	nop
      2c:	97 c0       	rjmp	.+302    	; 0x15c <__bad_interrupt>
      2e:	00 00       	nop
      30:	95 c0       	rjmp	.+298    	; 0x15c <__bad_interrupt>
      32:	00 00       	nop
      34:	93 c0       	rjmp	.+294    	; 0x15c <__bad_interrupt>
      36:	00 00       	nop
      38:	91 c0       	rjmp	.+290    	; 0x15c <__bad_interrupt>
      3a:	00 00       	nop
      3c:	8f c0       	rjmp	.+286    	; 0x15c <__bad_interrupt>
      3e:	00 00       	nop
      40:	8d c0       	rjmp	.+282    	; 0x15c <__bad_interrupt>
      42:	00 00       	nop
      44:	8b c0       	rjmp	.+278    	; 0x15c <__bad_interrupt>
      46:	00 00       	nop
      48:	89 c0       	rjmp	.+274    	; 0x15c <__bad_interrupt>
      4a:	00 00       	nop
      4c:	87 c0       	rjmp	.+270    	; 0x15c <__bad_interrupt>
      4e:	00 00       	nop
      50:	85 c0       	rjmp	.+266    	; 0x15c <__bad_interrupt>
      52:	00 00       	nop
      54:	83 c0       	rjmp	.+262    	; 0x15c <__bad_interrupt>
      56:	00 00       	nop
      58:	81 c0       	rjmp	.+258    	; 0x15c <__bad_interrupt>
      5a:	00 00       	nop
      5c:	7f c0       	rjmp	.+254    	; 0x15c <__bad_interrupt>
      5e:	00 00       	nop
      60:	7d c0       	rjmp	.+250    	; 0x15c <__bad_interrupt>
      62:	00 00       	nop
      64:	7b c0       	rjmp	.+246    	; 0x15c <__bad_interrupt>
      66:	00 00       	nop
      68:	79 c0       	rjmp	.+242    	; 0x15c <__bad_interrupt>
      6a:	00 00       	nop
      6c:	77 c0       	rjmp	.+238    	; 0x15c <__bad_interrupt>
      6e:	00 00       	nop
      70:	75 c0       	rjmp	.+234    	; 0x15c <__bad_interrupt>
      72:	00 00       	nop
      74:	73 c0       	rjmp	.+230    	; 0x15c <__bad_interrupt>
      76:	00 00       	nop
      78:	71 c0       	rjmp	.+226    	; 0x15c <__bad_interrupt>
      7a:	00 00       	nop
      7c:	6f c0       	rjmp	.+222    	; 0x15c <__bad_interrupt>
      7e:	00 00       	nop
      80:	6d c0       	rjmp	.+218    	; 0x15c <__bad_interrupt>
      82:	00 00       	nop
      84:	6b c0       	rjmp	.+214    	; 0x15c <__bad_interrupt>
      86:	00 00       	nop
      88:	69 c0       	rjmp	.+210    	; 0x15c <__bad_interrupt>
      8a:	00 00       	nop
      8c:	67 c0       	rjmp	.+206    	; 0x15c <__bad_interrupt>
      8e:	00 00       	nop
      90:	65 c0       	rjmp	.+202    	; 0x15c <__bad_interrupt>
      92:	00 00       	nop
      94:	63 c0       	rjmp	.+198    	; 0x15c <__bad_interrupt>
      96:	00 00       	nop
      98:	61 c0       	rjmp	.+194    	; 0x15c <__bad_interrupt>
      9a:	00 00       	nop
      9c:	5f c0       	rjmp	.+190    	; 0x15c <__bad_interrupt>
      9e:	00 00       	nop
      a0:	5d c0       	rjmp	.+186    	; 0x15c <__bad_interrupt>
      a2:	00 00       	nop
      a4:	5b c0       	rjmp	.+182    	; 0x15c <__bad_interrupt>
      a6:	00 00       	nop
      a8:	59 c0       	rjmp	.+178    	; 0x15c <__bad_interrupt>
      aa:	00 00       	nop
      ac:	57 c0       	rjmp	.+174    	; 0x15c <__bad_interrupt>
      ae:	00 00       	nop
      b0:	55 c0       	rjmp	.+170    	; 0x15c <__bad_interrupt>
      b2:	00 00       	nop
      b4:	53 c0       	rjmp	.+166    	; 0x15c <__bad_interrupt>
      b6:	00 00       	nop
      b8:	51 c0       	rjmp	.+162    	; 0x15c <__bad_interrupt>
      ba:	00 00       	nop
      bc:	4f c0       	rjmp	.+158    	; 0x15c <__bad_interrupt>
      be:	00 00       	nop
      c0:	4d c0       	rjmp	.+154    	; 0x15c <__bad_interrupt>
      c2:	00 00       	nop
      c4:	4b c0       	rjmp	.+150    	; 0x15c <__bad_interrupt>
      c6:	00 00       	nop
      c8:	49 c0       	rjmp	.+146    	; 0x15c <__bad_interrupt>
      ca:	00 00       	nop
      cc:	47 c0       	rjmp	.+142    	; 0x15c <__bad_interrupt>
      ce:	00 00       	nop
      d0:	45 c0       	rjmp	.+138    	; 0x15c <__bad_interrupt>
      d2:	00 00       	nop
      d4:	43 c0       	rjmp	.+134    	; 0x15c <__bad_interrupt>
      d6:	00 00       	nop
      d8:	41 c0       	rjmp	.+130    	; 0x15c <__bad_interrupt>
      da:	00 00       	nop
      dc:	3f c0       	rjmp	.+126    	; 0x15c <__bad_interrupt>
      de:	00 00       	nop
      e0:	3d c0       	rjmp	.+122    	; 0x15c <__bad_interrupt>
      e2:	00 00       	nop
      e4:	3b c0       	rjmp	.+118    	; 0x15c <__bad_interrupt>
      e6:	00 00       	nop
      e8:	39 c0       	rjmp	.+114    	; 0x15c <__bad_interrupt>
      ea:	00 00       	nop
      ec:	37 c0       	rjmp	.+110    	; 0x15c <__bad_interrupt>
      ee:	00 00       	nop
      f0:	35 c0       	rjmp	.+106    	; 0x15c <__bad_interrupt>
      f2:	00 00       	nop
      f4:	33 c0       	rjmp	.+102    	; 0x15c <__bad_interrupt>
      f6:	00 00       	nop
      f8:	31 c0       	rjmp	.+98     	; 0x15c <__bad_interrupt>
      fa:	00 00       	nop
      fc:	2f c0       	rjmp	.+94     	; 0x15c <__bad_interrupt>
      fe:	00 00       	nop
     100:	2d c0       	rjmp	.+90     	; 0x15c <__bad_interrupt>
     102:	00 00       	nop
     104:	2b c0       	rjmp	.+86     	; 0x15c <__bad_interrupt>
     106:	00 00       	nop
     108:	29 c0       	rjmp	.+82     	; 0x15c <__bad_interrupt>
     10a:	00 00       	nop
     10c:	27 c0       	rjmp	.+78     	; 0x15c <__bad_interrupt>
     10e:	00 00       	nop
     110:	25 c0       	rjmp	.+74     	; 0x15c <__bad_interrupt>
     112:	00 00       	nop
     114:	23 c0       	rjmp	.+70     	; 0x15c <__bad_interrupt>
     116:	00 00       	nop
     118:	21 c0       	rjmp	.+66     	; 0x15c <__bad_interrupt>
     11a:	00 00       	nop
     11c:	1f c0       	rjmp	.+62     	; 0x15c <__bad_interrupt>
	...

00000120 <__ctors_end>:
     120:	11 24       	eor	r1, r1
     122:	1f be       	out	0x3f, r1	; 63
     124:	cf ef       	ldi	r28, 0xFF	; 255
     126:	d1 e4       	ldi	r29, 0x41	; 65
     128:	de bf       	out	0x3e, r29	; 62
     12a:	cd bf       	out	0x3d, r28	; 61

0000012c <__do_copy_data>:
     12c:	12 e0       	ldi	r17, 0x02	; 2
     12e:	a0 e0       	ldi	r26, 0x00	; 0
     130:	b2 e0       	ldi	r27, 0x02	; 2
     132:	e4 e8       	ldi	r30, 0x84	; 132
     134:	f5 e1       	ldi	r31, 0x15	; 21
     136:	00 e0       	ldi	r16, 0x00	; 0
     138:	0b bf       	out	0x3b, r16	; 59
     13a:	02 c0       	rjmp	.+4      	; 0x140 <__do_copy_data+0x14>
     13c:	07 90       	elpm	r0, Z+
     13e:	0d 92       	st	X+, r0
     140:	ac 39       	cpi	r26, 0x9C	; 156
     142:	b1 07       	cpc	r27, r17
     144:	d9 f7       	brne	.-10     	; 0x13c <__do_copy_data+0x10>

00000146 <__do_clear_bss>:
     146:	24 e0       	ldi	r18, 0x04	; 4
     148:	ac e9       	ldi	r26, 0x9C	; 156
     14a:	b2 e0       	ldi	r27, 0x02	; 2
     14c:	01 c0       	rjmp	.+2      	; 0x150 <.do_clear_bss_start>

0000014e <.do_clear_bss_loop>:
     14e:	1d 92       	st	X+, r1

00000150 <.do_clear_bss_start>:
     150:	a7 32       	cpi	r26, 0x27	; 39
     152:	b2 07       	cpc	r27, r18
     154:	e1 f7       	brne	.-8      	; 0x14e <.do_clear_bss_loop>
     156:	b9 d2       	rcall	.+1394   	; 0x6ca <main>
     158:	0c 94 c0 0a 	jmp	0x1580	; 0x1580 <_exit>

0000015c <__bad_interrupt>:
     15c:	51 cf       	rjmp	.-350    	; 0x0 <__vectors>

0000015e <button_init>:
     15e:	6d 98       	cbi	0x0d, 5	; 13
     160:	75 9a       	sbi	0x0e, 5	; 14
     162:	08 95       	ret

00000164 <button_pressed>:
     164:	81 e0       	ldi	r24, 0x01	; 1
     166:	65 99       	sbic	0x0c, 5	; 12
     168:	80 e0       	ldi	r24, 0x00	; 0
     16a:	08 95       	ret

0000016c <button_released>:
     16c:	fb df       	rcall	.-10     	; 0x164 <button_pressed>
     16e:	91 e0       	ldi	r25, 0x01	; 1
     170:	89 27       	eor	r24, r25
     172:	08 95       	ret

00000174 <leds_init>:
     174:	6a 9a       	sbi	0x0d, 2	; 13
     176:	6b 9a       	sbi	0x0d, 3	; 13
     178:	6c 9a       	sbi	0x0d, 4	; 13
     17a:	72 9a       	sbi	0x0e, 2	; 14
     17c:	73 9a       	sbi	0x0e, 3	; 14
     17e:	74 9a       	sbi	0x0e, 4	; 14
     180:	08 95       	ret

00000182 <leds_on>:
     182:	81 30       	cpi	r24, 0x01	; 1
     184:	11 f4       	brne	.+4      	; 0x18a <leds_on+0x8>
     186:	72 98       	cbi	0x0e, 2	; 14
     188:	08 95       	ret
     18a:	82 30       	cpi	r24, 0x02	; 2
     18c:	11 f4       	brne	.+4      	; 0x192 <leds_on+0x10>
     18e:	73 98       	cbi	0x0e, 3	; 14
     190:	08 95       	ret
     192:	83 30       	cpi	r24, 0x03	; 3
     194:	09 f4       	brne	.+2      	; 0x198 <leds_on+0x16>
     196:	74 98       	cbi	0x0e, 4	; 14
     198:	08 95       	ret

0000019a <leds_off>:
     19a:	81 30       	cpi	r24, 0x01	; 1
     19c:	11 f4       	brne	.+4      	; 0x1a2 <leds_off+0x8>
     19e:	72 9a       	sbi	0x0e, 2	; 14
     1a0:	08 95       	ret
     1a2:	82 30       	cpi	r24, 0x02	; 2
     1a4:	11 f4       	brne	.+4      	; 0x1aa <leds_off+0x10>
     1a6:	73 9a       	sbi	0x0e, 3	; 14
     1a8:	08 95       	ret
     1aa:	83 30       	cpi	r24, 0x03	; 3
     1ac:	09 f4       	brne	.+2      	; 0x1b0 <leds_off+0x16>
     1ae:	74 9a       	sbi	0x0e, 4	; 14
     1b0:	08 95       	ret

000001b2 <radio_init>:
     1b2:	ff 92       	push	r15
     1b4:	0f 93       	push	r16
     1b6:	1f 93       	push	r17
     1b8:	cf 93       	push	r28
     1ba:	df 93       	push	r29
     1bc:	08 2f       	mov	r16, r24
     1be:	19 2f       	mov	r17, r25
     1c0:	f6 2e       	mov	r15, r22
     1c2:	c9 e3       	ldi	r28, 0x39	; 57
     1c4:	d1 e0       	ldi	r29, 0x01	; 1
     1c6:	18 82       	st	Y, r1
     1c8:	86 e0       	ldi	r24, 0x06	; 6
     1ca:	90 e0       	ldi	r25, 0x00	; 0
     1cc:	be d3       	rcall	.+1916   	; 0x94a <hw_timer_wait_micro>
     1ce:	81 e0       	ldi	r24, 0x01	; 1
     1d0:	88 83       	st	Y, r24
     1d2:	80 91 41 01 	lds	r24, 0x0141
     1d6:	80 93 9c 02 	sts	0x029C, r24
     1da:	88 23       	and	r24, r24
     1dc:	51 f4       	brne	.+20     	; 0x1f2 <radio_init+0x40>
     1de:	88 e0       	ldi	r24, 0x08	; 8
     1e0:	80 93 42 01 	sts	0x0142, r24
     1e4:	8e ef       	ldi	r24, 0xFE	; 254
     1e6:	91 e0       	ldi	r25, 0x01	; 1
     1e8:	b0 d3       	rcall	.+1888   	; 0x94a <hw_timer_wait_micro>
     1ea:	80 91 41 01 	lds	r24, 0x0141
     1ee:	80 93 9c 02 	sts	0x029C, r24
     1f2:	8b e0       	ldi	r24, 0x0B	; 11
     1f4:	80 93 48 01 	sts	0x0148, r24
     1f8:	8f ef       	ldi	r24, 0xFF	; 255
     1fa:	80 93 4f 01 	sts	0x014F, r24
     1fe:	00 93 9d 02 	sts	0x029D, r16
     202:	10 93 9e 02 	sts	0x029E, r17
     206:	00 93 60 01 	sts	0x0160, r16
     20a:	10 93 61 01 	sts	0x0161, r17
     20e:	10 92 62 01 	sts	0x0162, r1
     212:	10 92 63 01 	sts	0x0163, r1
     216:	80 91 41 01 	lds	r24, 0x0141
     21a:	80 93 9c 02 	sts	0x029C, r24
     21e:	f0 92 9f 02 	sts	0x029F, r15
     222:	df 91       	pop	r29
     224:	cf 91       	pop	r28
     226:	1f 91       	pop	r17
     228:	0f 91       	pop	r16
     22a:	ff 90       	pop	r15
     22c:	08 95       	ret

0000022e <radio_start>:
     22e:	8f ef       	ldi	r24, 0xFF	; 255
     230:	80 93 4f 01 	sts	0x014F, r24
     234:	86 e0       	ldi	r24, 0x06	; 6
     236:	80 93 42 01 	sts	0x0142, r24
     23a:	e1 e4       	ldi	r30, 0x41	; 65
     23c:	f1 e0       	ldi	r31, 0x01	; 1
     23e:	80 81       	ld	r24, Z
     240:	8f 71       	andi	r24, 0x1F	; 31
     242:	86 30       	cpi	r24, 0x06	; 6
     244:	e1 f7       	brne	.-8      	; 0x23e <radio_start+0x10>
     246:	ec e4       	ldi	r30, 0x4C	; 76
     248:	f1 e0       	ldi	r31, 0x01	; 1
     24a:	80 81       	ld	r24, Z
     24c:	80 68       	ori	r24, 0x80	; 128
     24e:	80 83       	st	Z, r24
     250:	08 95       	ret

00000252 <radio_tx_done>:
     252:	80 91 a0 02 	lds	r24, 0x02A0
     256:	10 92 a0 02 	sts	0x02A0, r1
     25a:	08 95       	ret

0000025c <radio_send>:
     25c:	2f ef       	ldi	r18, 0xFF	; 255
     25e:	20 93 4f 01 	sts	0x014F, r18
     262:	20 91 41 01 	lds	r18, 0x0141
     266:	2f 71       	andi	r18, 0x1F	; 31
     268:	29 30       	cpi	r18, 0x09	; 9
     26a:	41 f0       	breq	.+16     	; 0x27c <radio_send+0x20>
     26c:	29 e0       	ldi	r18, 0x09	; 9
     26e:	20 93 42 01 	sts	0x0142, r18
     272:	e1 e4       	ldi	r30, 0x41	; 65
     274:	f1 e0       	ldi	r31, 0x01	; 1
     276:	20 81       	ld	r18, Z
     278:	29 30       	cpi	r18, 0x09	; 9
     27a:	e9 f7       	brne	.-6      	; 0x276 <radio_send+0x1a>
     27c:	26 2f       	mov	r18, r22
     27e:	23 5f       	subi	r18, 0xF3	; 243
     280:	20 93 80 01 	sts	0x0180, r18
     284:	20 e2       	ldi	r18, 0x20	; 32
     286:	20 93 81 01 	sts	0x0181, r18
     28a:	22 e2       	ldi	r18, 0x22	; 34
     28c:	20 93 82 01 	sts	0x0182, r18
     290:	21 e0       	ldi	r18, 0x01	; 1
     292:	20 93 83 01 	sts	0x0183, r18
     296:	10 92 84 01 	sts	0x0184, r1
     29a:	10 92 85 01 	sts	0x0185, r1
     29e:	50 93 86 01 	sts	0x0186, r21
     2a2:	40 93 87 01 	sts	0x0187, r20
     2a6:	10 92 88 01 	sts	0x0188, r1
     2aa:	10 92 89 01 	sts	0x0189, r1
     2ae:	20 91 9e 02 	lds	r18, 0x029E
     2b2:	20 93 8a 01 	sts	0x018A, r18
     2b6:	20 91 9d 02 	lds	r18, 0x029D
     2ba:	20 93 8b 01 	sts	0x018B, r18
     2be:	66 23       	and	r22, r22
     2c0:	91 f0       	breq	.+36     	; 0x2e6 <radio_send+0x8a>
     2c2:	a8 2f       	mov	r26, r24
     2c4:	b9 2f       	mov	r27, r25
     2c6:	61 50       	subi	r22, 0x01	; 1
     2c8:	70 e0       	ldi	r23, 0x00	; 0
     2ca:	cb 01       	movw	r24, r22
     2cc:	83 57       	subi	r24, 0x73	; 115
     2ce:	9e 4f       	sbci	r25, 0xFE	; 254
     2d0:	ec e8       	ldi	r30, 0x8C	; 140
     2d2:	f1 e0       	ldi	r31, 0x01	; 1
     2d4:	2d 91       	ld	r18, X+
     2d6:	21 93       	st	Z+, r18
     2d8:	e8 17       	cp	r30, r24
     2da:	f9 07       	cpc	r31, r25
     2dc:	d9 f7       	brne	.-10     	; 0x2d4 <radio_send+0x78>
     2de:	fb 01       	movw	r30, r22
     2e0:	e3 57       	subi	r30, 0x73	; 115
     2e2:	fe 4f       	sbci	r31, 0xFE	; 254
     2e4:	02 c0       	rjmp	.+4      	; 0x2ea <radio_send+0x8e>
     2e6:	ec e8       	ldi	r30, 0x8C	; 140
     2e8:	f1 e0       	ldi	r31, 0x01	; 1
     2ea:	10 82       	st	Z, r1
     2ec:	11 82       	std	Z+1, r1	; 0x01
     2ee:	82 e0       	ldi	r24, 0x02	; 2
     2f0:	80 93 42 01 	sts	0x0142, r24
     2f4:	ef e4       	ldi	r30, 0x4F	; 79
     2f6:	f1 e0       	ldi	r31, 0x01	; 1
     2f8:	80 81       	ld	r24, Z
     2fa:	86 ff       	sbrs	r24, 6
     2fc:	fd cf       	rjmp	.-6      	; 0x2f8 <radio_send+0x9c>
     2fe:	8f ef       	ldi	r24, 0xFF	; 255
     300:	80 93 4f 01 	sts	0x014F, r24
     304:	86 e0       	ldi	r24, 0x06	; 6
     306:	80 93 42 01 	sts	0x0142, r24
     30a:	e1 e4       	ldi	r30, 0x41	; 65
     30c:	f1 e0       	ldi	r31, 0x01	; 1
     30e:	80 81       	ld	r24, Z
     310:	8f 71       	andi	r24, 0x1F	; 31
     312:	86 30       	cpi	r24, 0x06	; 6
     314:	e1 f7       	brne	.-8      	; 0x30e <radio_send+0xb2>
     316:	81 e0       	ldi	r24, 0x01	; 1
     318:	80 93 a0 02 	sts	0x02A0, r24
     31c:	80 91 41 01 	lds	r24, 0x0141
     320:	80 93 9c 02 	sts	0x029C, r24
     324:	08 95       	ret

00000326 <radio_rxed>:
     326:	90 91 4f 01 	lds	r25, 0x014F
     32a:	81 e0       	ldi	r24, 0x01	; 1
     32c:	93 ff       	sbrs	r25, 3
     32e:	80 e0       	ldi	r24, 0x00	; 0
     330:	08 95       	ret

00000332 <radio_recv>:
     332:	8f 92       	push	r8
     334:	9f 92       	push	r9
     336:	af 92       	push	r10
     338:	bf 92       	push	r11
     33a:	cf 92       	push	r12
     33c:	df 92       	push	r13
     33e:	ef 92       	push	r14
     340:	ff 92       	push	r15
     342:	0f 93       	push	r16
     344:	1f 93       	push	r17
     346:	cf 93       	push	r28
     348:	78 2f       	mov	r23, r24
     34a:	c9 2f       	mov	r28, r25
     34c:	5a 01       	movw	r10, r20
     34e:	49 01       	movw	r8, r18
     350:	40 91 7b 01 	lds	r20, 0x017B
     354:	8f ef       	ldi	r24, 0xFF	; 255
     356:	80 93 00 02 	sts	0x0200, r24
     35a:	ef e4       	ldi	r30, 0x4F	; 79
     35c:	f1 e0       	ldi	r31, 0x01	; 1
     35e:	80 81       	ld	r24, Z
     360:	82 ff       	sbrs	r24, 2
     362:	fd cf       	rjmp	.-6      	; 0x35e <radio_recv+0x2c>
     364:	0c c0       	rjmp	.+24     	; 0x37e <radio_recv+0x4c>
     366:	80 81       	ld	r24, Z
     368:	90 e0       	ldi	r25, 0x00	; 0
     36a:	8f 71       	andi	r24, 0x1F	; 31
     36c:	90 70       	andi	r25, 0x00	; 0
     36e:	28 17       	cp	r18, r24
     370:	39 07       	cpc	r19, r25
     372:	64 f4       	brge	.+24     	; 0x38c <radio_recv+0x5a>
     374:	80 81       	ld	r24, Z
     376:	8f 71       	andi	r24, 0x1F	; 31
     378:	80 93 00 02 	sts	0x0200, r24
     37c:	04 c0       	rjmp	.+8      	; 0x386 <radio_recv+0x54>
     37e:	af e4       	ldi	r26, 0x4F	; 79
     380:	b1 e0       	ldi	r27, 0x01	; 1
     382:	e6 e4       	ldi	r30, 0x46	; 70
     384:	f1 e0       	ldi	r31, 0x01	; 1
     386:	20 91 00 02 	lds	r18, 0x0200
     38a:	30 e0       	ldi	r19, 0x00	; 0
     38c:	8c 91       	ld	r24, X
     38e:	83 ff       	sbrs	r24, 3
     390:	ea cf       	rjmp	.-44     	; 0x366 <radio_recv+0x34>
     392:	84 2f       	mov	r24, r20
     394:	8b 50       	subi	r24, 0x0B	; 11
     396:	46 2f       	mov	r20, r22
     398:	86 17       	cp	r24, r22
     39a:	08 f4       	brcc	.+2      	; 0x39e <radio_recv+0x6c>
     39c:	48 2f       	mov	r20, r24
     39e:	30 91 85 01 	lds	r19, 0x0185
     3a2:	20 e0       	ldi	r18, 0x00	; 0
     3a4:	80 91 86 01 	lds	r24, 0x0186
     3a8:	90 e0       	ldi	r25, 0x00	; 0
     3aa:	82 2b       	or	r24, r18
     3ac:	93 2b       	or	r25, r19
     3ae:	f5 01       	movw	r30, r10
     3b0:	91 83       	std	Z+1, r25	; 0x01
     3b2:	80 83       	st	Z, r24
     3b4:	30 91 89 01 	lds	r19, 0x0189
     3b8:	20 e0       	ldi	r18, 0x00	; 0
     3ba:	80 91 8a 01 	lds	r24, 0x018A
     3be:	90 e0       	ldi	r25, 0x00	; 0
     3c0:	82 2b       	or	r24, r18
     3c2:	93 2b       	or	r25, r19
     3c4:	f4 01       	movw	r30, r8
     3c6:	91 83       	std	Z+1, r25	; 0x01
     3c8:	80 83       	st	Z, r24
     3ca:	44 23       	and	r20, r20
     3cc:	99 f0       	breq	.+38     	; 0x3f4 <radio_recv+0xc2>
     3ce:	a7 2f       	mov	r26, r23
     3d0:	bc 2f       	mov	r27, r28
     3d2:	24 2f       	mov	r18, r20
     3d4:	21 50       	subi	r18, 0x01	; 1
     3d6:	30 e0       	ldi	r19, 0x00	; 0
     3d8:	c9 01       	movw	r24, r18
     3da:	84 57       	subi	r24, 0x74	; 116
     3dc:	9e 4f       	sbci	r25, 0xFE	; 254
     3de:	eb e8       	ldi	r30, 0x8B	; 139
     3e0:	f1 e0       	ldi	r31, 0x01	; 1
     3e2:	51 91       	ld	r21, Z+
     3e4:	5d 93       	st	X+, r21
     3e6:	e8 17       	cp	r30, r24
     3e8:	f9 07       	cpc	r31, r25
     3ea:	d9 f7       	brne	.-10     	; 0x3e2 <radio_recv+0xb0>
     3ec:	f9 01       	movw	r30, r18
     3ee:	e4 57       	subi	r30, 0x74	; 116
     3f0:	fe 4f       	sbci	r31, 0xFE	; 254
     3f2:	02 c0       	rjmp	.+4      	; 0x3f8 <radio_recv+0xc6>
     3f4:	eb e8       	ldi	r30, 0x8B	; 139
     3f6:	f1 e0       	ldi	r31, 0x01	; 1
     3f8:	80 81       	ld	r24, Z
     3fa:	80 93 a1 02 	sts	0x02A1, r24
     3fe:	f6 01       	movw	r30, r12
     400:	80 83       	st	Z, r24
     402:	80 91 47 01 	lds	r24, 0x0147
     406:	80 93 a2 02 	sts	0x02A2, r24
     40a:	f7 01       	movw	r30, r14
     40c:	80 83       	st	Z, r24
     40e:	80 91 46 01 	lds	r24, 0x0146
     412:	88 1f       	adc	r24, r24
     414:	88 27       	eor	r24, r24
     416:	88 1f       	adc	r24, r24
     418:	f8 01       	movw	r30, r16
     41a:	80 83       	st	Z, r24
     41c:	e1 e4       	ldi	r30, 0x41	; 65
     41e:	f1 e0       	ldi	r31, 0x01	; 1
     420:	80 81       	ld	r24, Z
     422:	8f 71       	andi	r24, 0x1F	; 31
     424:	86 30       	cpi	r24, 0x06	; 6
     426:	e1 f7       	brne	.-8      	; 0x420 <radio_recv+0xee>
     428:	ec e4       	ldi	r30, 0x4C	; 76
     42a:	f1 e0       	ldi	r31, 0x01	; 1
     42c:	80 81       	ld	r24, Z
     42e:	8f 77       	andi	r24, 0x7F	; 127
     430:	80 83       	st	Z, r24
     432:	80 81       	ld	r24, Z
     434:	80 68       	ori	r24, 0x80	; 128
     436:	80 83       	st	Z, r24
     438:	8f ef       	ldi	r24, 0xFF	; 255
     43a:	80 93 4f 01 	sts	0x014F, r24
     43e:	80 91 41 01 	lds	r24, 0x0141
     442:	80 93 9c 02 	sts	0x029C, r24
     446:	84 2f       	mov	r24, r20
     448:	82 50       	subi	r24, 0x02	; 2
     44a:	cf 91       	pop	r28
     44c:	1f 91       	pop	r17
     44e:	0f 91       	pop	r16
     450:	ff 90       	pop	r15
     452:	ef 90       	pop	r14
     454:	df 90       	pop	r13
     456:	cf 90       	pop	r12
     458:	bf 90       	pop	r11
     45a:	af 90       	pop	r10
     45c:	9f 90       	pop	r9
     45e:	8f 90       	pop	r8
     460:	08 95       	ret

00000462 <radio_set_power>:
     462:	e5 e4       	ldi	r30, 0x45	; 69
     464:	f1 e0       	ldi	r31, 0x01	; 1
     466:	90 81       	ld	r25, Z
     468:	8f 70       	andi	r24, 0x0F	; 15
     46a:	90 7f       	andi	r25, 0xF0	; 240
     46c:	98 2b       	or	r25, r24
     46e:	90 83       	st	Z, r25
     470:	08 95       	ret

00000472 <radio_rssi>:
     472:	80 91 46 01 	lds	r24, 0x0146
     476:	8f 71       	andi	r24, 0x1F	; 31
     478:	90 91 00 02 	lds	r25, 0x0200
     47c:	98 17       	cp	r25, r24
     47e:	10 f4       	brcc	.+4      	; 0x484 <radio_rssi+0x12>
     480:	80 93 00 02 	sts	0x0200, r24
     484:	08 95       	ret

00000486 <radio_max_rssi>:
     486:	80 91 00 02 	lds	r24, 0x0200
     48a:	10 92 00 02 	sts	0x0200, r1
     48e:	08 95       	ret

00000490 <radio_latest_energy>:
     490:	80 91 a2 02 	lds	r24, 0x02A2
     494:	08 95       	ret

00000496 <radio_latest_lqi>:
     496:	80 91 a1 02 	lds	r24, 0x02A1
     49a:	08 95       	ret

0000049c <radio_rx_all>:
     49c:	80 91 9f 02 	lds	r24, 0x029F
     4a0:	08 95       	ret

000004a2 <radio_getid>:
     4a2:	80 91 9d 02 	lds	r24, 0x029D
     4a6:	90 91 9e 02 	lds	r25, 0x029E
     4aa:	08 95       	ret

000004ac <serial_init>:
     4ac:	4f 92       	push	r4
     4ae:	5f 92       	push	r5
     4b0:	6f 92       	push	r6
     4b2:	7f 92       	push	r7
     4b4:	8f 92       	push	r8
     4b6:	9f 92       	push	r9
     4b8:	af 92       	push	r10
     4ba:	bf 92       	push	r11
     4bc:	cf 92       	push	r12
     4be:	df 92       	push	r13
     4c0:	ef 92       	push	r14
     4c2:	ff 92       	push	r15
     4c4:	4b 01       	movw	r8, r22
     4c6:	5c 01       	movw	r10, r24
     4c8:	d9 d1       	rcall	.+946    	; 0x87c <hw_timer_cpuf>
     4ca:	2b 01       	movw	r4, r22
     4cc:	3c 01       	movw	r6, r24
     4ce:	68 94       	set
     4d0:	13 f8       	bld	r1, 3
     4d2:	76 94       	lsr	r7
     4d4:	67 94       	ror	r6
     4d6:	57 94       	ror	r5
     4d8:	47 94       	ror	r4
     4da:	16 94       	lsr	r1
     4dc:	d1 f7       	brne	.-12     	; 0x4d2 <serial_init+0x26>
     4de:	0f 2e       	mov	r0, r31
     4e0:	fa e0       	ldi	r31, 0x0A	; 10
     4e2:	cf 2e       	mov	r12, r31
     4e4:	f0 e0       	ldi	r31, 0x00	; 0
     4e6:	df 2e       	mov	r13, r31
     4e8:	f0 e0       	ldi	r31, 0x00	; 0
     4ea:	ef 2e       	mov	r14, r31
     4ec:	f0 e0       	ldi	r31, 0x00	; 0
     4ee:	ff 2e       	mov	r15, r31
     4f0:	f0 2d       	mov	r31, r0
     4f2:	c5 01       	movw	r24, r10
     4f4:	b4 01       	movw	r22, r8
     4f6:	a7 01       	movw	r20, r14
     4f8:	96 01       	movw	r18, r12
     4fa:	be d4       	rcall	.+2428   	; 0xe78 <__udivmodsi4>
     4fc:	c3 01       	movw	r24, r6
     4fe:	b2 01       	movw	r22, r4
     500:	bb d4       	rcall	.+2422   	; 0xe78 <__udivmodsi4>
     502:	ca 01       	movw	r24, r20
     504:	b9 01       	movw	r22, r18
     506:	6b 5f       	subi	r22, 0xFB	; 251
     508:	7f 4f       	sbci	r23, 0xFF	; 255
     50a:	8f 4f       	sbci	r24, 0xFF	; 255
     50c:	9f 4f       	sbci	r25, 0xFF	; 255
     50e:	a7 01       	movw	r20, r14
     510:	96 01       	movw	r18, r12
     512:	b2 d4       	rcall	.+2404   	; 0xe78 <__udivmodsi4>
     514:	da 01       	movw	r26, r20
     516:	c9 01       	movw	r24, r18
     518:	01 97       	sbiw	r24, 0x01	; 1
     51a:	a1 09       	sbc	r26, r1
     51c:	b1 09       	sbc	r27, r1
     51e:	e1 ec       	ldi	r30, 0xC1	; 193
     520:	f0 e0       	ldi	r31, 0x00	; 0
     522:	10 82       	st	Z, r1
     524:	10 92 c0 00 	sts	0x00C0, r1
     528:	26 e0       	ldi	r18, 0x06	; 6
     52a:	20 93 c2 00 	sts	0x00C2, r18
     52e:	29 2f       	mov	r18, r25
     530:	2f 70       	andi	r18, 0x0F	; 15
     532:	20 93 c5 00 	sts	0x00C5, r18
     536:	80 93 c4 00 	sts	0x00C4, r24
     53a:	88 e1       	ldi	r24, 0x18	; 24
     53c:	80 83       	st	Z, r24
     53e:	81 e0       	ldi	r24, 0x01	; 1
     540:	92 e0       	ldi	r25, 0x02	; 2
     542:	90 93 24 04 	sts	0x0424, r25
     546:	80 93 23 04 	sts	0x0423, r24
     54a:	e3 e2       	ldi	r30, 0x23	; 35
     54c:	f4 e0       	ldi	r31, 0x04	; 4
     54e:	92 93       	st	-Z, r25
     550:	82 93       	st	-Z, r24
     552:	95 83       	std	Z+5, r25	; 0x05
     554:	84 83       	std	Z+4, r24	; 0x04
     556:	81 e0       	ldi	r24, 0x01	; 1
     558:	80 93 a3 02 	sts	0x02A3, r24
     55c:	ff 90       	pop	r15
     55e:	ef 90       	pop	r14
     560:	df 90       	pop	r13
     562:	cf 90       	pop	r12
     564:	bf 90       	pop	r11
     566:	af 90       	pop	r10
     568:	9f 90       	pop	r9
     56a:	8f 90       	pop	r8
     56c:	7f 90       	pop	r7
     56e:	6f 90       	pop	r6
     570:	5f 90       	pop	r5
     572:	4f 90       	pop	r4
     574:	08 95       	ret

00000576 <serial_is_init>:
     576:	80 91 a3 02 	lds	r24, 0x02A3
     57a:	08 95       	ret

0000057c <serial_put>:
     57c:	e0 ec       	ldi	r30, 0xC0	; 192
     57e:	f0 e0       	ldi	r31, 0x00	; 0
     580:	90 81       	ld	r25, Z
     582:	95 ff       	sbrs	r25, 5
     584:	fd cf       	rjmp	.-6      	; 0x580 <serial_put+0x4>
     586:	80 93 c6 00 	sts	0x00C6, r24
     58a:	08 95       	ret

0000058c <write>:
     58c:	cf 93       	push	r28
     58e:	c8 2f       	mov	r28, r24
     590:	f5 df       	rcall	.-22     	; 0x57c <serial_put>
     592:	8c 2f       	mov	r24, r28
     594:	90 e0       	ldi	r25, 0x00	; 0
     596:	cf 91       	pop	r28
     598:	08 95       	ret

0000059a <serial_puts>:
     59a:	cf 93       	push	r28
     59c:	df 93       	push	r29
     59e:	ec 01       	movw	r28, r24
     5a0:	88 81       	ld	r24, Y
     5a2:	88 23       	and	r24, r24
     5a4:	29 f0       	breq	.+10     	; 0x5b0 <serial_puts+0x16>
     5a6:	21 96       	adiw	r28, 0x01	; 1
     5a8:	e9 df       	rcall	.-46     	; 0x57c <serial_put>
     5aa:	89 91       	ld	r24, Y+
     5ac:	88 23       	and	r24, r24
     5ae:	e1 f7       	brne	.-8      	; 0x5a8 <serial_puts+0xe>
     5b0:	df 91       	pop	r29
     5b2:	cf 91       	pop	r28
     5b4:	08 95       	ret

000005b6 <serial_ready>:
     5b6:	80 91 c0 00 	lds	r24, 0x00C0
     5ba:	88 1f       	adc	r24, r24
     5bc:	88 27       	eor	r24, r24
     5be:	88 1f       	adc	r24, r24
     5c0:	08 95       	ret

000005c2 <serial_get>:
     5c2:	f9 df       	rcall	.-14     	; 0x5b6 <serial_ready>
     5c4:	88 23       	and	r24, r24
     5c6:	e9 f3       	breq	.-6      	; 0x5c2 <serial_get>
     5c8:	80 91 c6 00 	lds	r24, 0x00C6
     5cc:	08 95       	ret

000005ce <read>:
     5ce:	cf 93       	push	r28
     5d0:	f8 df       	rcall	.-16     	; 0x5c2 <serial_get>
     5d2:	c8 2f       	mov	r28, r24
     5d4:	d3 df       	rcall	.-90     	; 0x57c <serial_put>
     5d6:	8c 2f       	mov	r24, r28
     5d8:	90 e0       	ldi	r25, 0x00	; 0
     5da:	cf 91       	pop	r28
     5dc:	08 95       	ret

000005de <os_timer_add>:
     5de:	bc 01       	movw	r22, r24
     5e0:	40 91 a9 02 	lds	r20, 0x02A9
     5e4:	50 91 aa 02 	lds	r21, 0x02AA
     5e8:	48 17       	cp	r20, r24
     5ea:	59 07       	cpc	r21, r25
     5ec:	41 f1       	breq	.+80     	; 0x63e <os_timer_add+0x60>
     5ee:	ab ea       	ldi	r26, 0xAB	; 171
     5f0:	b2 e0       	ldi	r27, 0x02	; 2
     5f2:	9d 01       	movw	r18, r26
     5f4:	2e 5e       	subi	r18, 0xEE	; 238
     5f6:	3f 4f       	sbci	r19, 0xFF	; 255
     5f8:	fd 01       	movw	r30, r26
     5fa:	81 91       	ld	r24, Z+
     5fc:	91 91       	ld	r25, Z+
     5fe:	86 17       	cp	r24, r22
     600:	97 07       	cpc	r25, r23
     602:	e9 f0       	breq	.+58     	; 0x63e <os_timer_add+0x60>
     604:	e2 17       	cp	r30, r18
     606:	f3 07       	cpc	r31, r19
     608:	c1 f7       	brne	.-16     	; 0x5fa <os_timer_add+0x1c>
     60a:	41 15       	cp	r20, r1
     60c:	51 05       	cpc	r21, r1
     60e:	41 f0       	breq	.+16     	; 0x620 <os_timer_add+0x42>
     610:	21 e0       	ldi	r18, 0x01	; 1
     612:	30 e0       	ldi	r19, 0x00	; 0
     614:	a9 01       	movw	r20, r18
     616:	8d 91       	ld	r24, X+
     618:	9d 91       	ld	r25, X+
     61a:	00 97       	sbiw	r24, 0x00	; 0
     61c:	59 f4       	brne	.+22     	; 0x634 <os_timer_add+0x56>
     61e:	02 c0       	rjmp	.+4      	; 0x624 <os_timer_add+0x46>
     620:	40 e0       	ldi	r20, 0x00	; 0
     622:	50 e0       	ldi	r21, 0x00	; 0
     624:	fa 01       	movw	r30, r20
     626:	ee 0f       	add	r30, r30
     628:	ff 1f       	adc	r31, r31
     62a:	e7 55       	subi	r30, 0x57	; 87
     62c:	fd 4f       	sbci	r31, 0xFD	; 253
     62e:	71 83       	std	Z+1, r23	; 0x01
     630:	60 83       	st	Z, r22
     632:	08 95       	ret
     634:	2f 5f       	subi	r18, 0xFF	; 255
     636:	3f 4f       	sbci	r19, 0xFF	; 255
     638:	2a 30       	cpi	r18, 0x0A	; 10
     63a:	31 05       	cpc	r19, r1
     63c:	59 f7       	brne	.-42     	; 0x614 <os_timer_add+0x36>
     63e:	08 95       	ret

00000640 <os_timer_tick>:
     640:	fc 01       	movw	r30, r24
     642:	00 97       	sbiw	r24, 0x00	; 0
     644:	29 f1       	breq	.+74     	; 0x690 <os_timer_tick+0x50>
     646:	80 81       	ld	r24, Z
     648:	88 23       	and	r24, r24
     64a:	11 f1       	breq	.+68     	; 0x690 <os_timer_tick+0x50>
     64c:	80 85       	ldd	r24, Z+8	; 0x08
     64e:	91 85       	ldd	r25, Z+9	; 0x09
     650:	00 97       	sbiw	r24, 0x00	; 0
     652:	f1 f0       	breq	.+60     	; 0x690 <os_timer_tick+0x50>
     654:	66 23       	and	r22, r22
     656:	39 f0       	breq	.+14     	; 0x666 <os_timer_tick+0x26>
     658:	22 81       	ldd	r18, Z+2	; 0x02
     65a:	21 30       	cpi	r18, 0x01	; 1
     65c:	c9 f4       	brne	.+50     	; 0x690 <os_timer_tick+0x50>
     65e:	01 97       	sbiw	r24, 0x01	; 1
     660:	91 87       	std	Z+9, r25	; 0x09
     662:	80 87       	std	Z+8, r24	; 0x08
     664:	06 c0       	rjmp	.+12     	; 0x672 <os_timer_tick+0x32>
     666:	22 81       	ldd	r18, Z+2	; 0x02
     668:	22 23       	and	r18, r18
     66a:	91 f4       	brne	.+36     	; 0x690 <os_timer_tick+0x50>
     66c:	01 97       	sbiw	r24, 0x01	; 1
     66e:	91 87       	std	Z+9, r25	; 0x09
     670:	80 87       	std	Z+8, r24	; 0x08
     672:	80 85       	ldd	r24, Z+8	; 0x08
     674:	91 85       	ldd	r25, Z+9	; 0x09
     676:	00 97       	sbiw	r24, 0x00	; 0
     678:	59 f4       	brne	.+22     	; 0x690 <os_timer_tick+0x50>
     67a:	81 e0       	ldi	r24, 0x01	; 1
     67c:	83 83       	std	Z+3, r24	; 0x03
     67e:	86 81       	ldd	r24, Z+6	; 0x06
     680:	97 81       	ldd	r25, Z+7	; 0x07
     682:	00 97       	sbiw	r24, 0x00	; 0
     684:	19 f0       	breq	.+6      	; 0x68c <os_timer_tick+0x4c>
     686:	81 e0       	ldi	r24, 0x01	; 1
     688:	81 83       	std	Z+1, r24	; 0x01
     68a:	01 c0       	rjmp	.+2      	; 0x68e <os_timer_tick+0x4e>
     68c:	11 82       	std	Z+1, r1	; 0x01
     68e:	10 82       	st	Z, r1
     690:	08 95       	ret

00000692 <timer_init>:
     692:	fc 01       	movw	r30, r24
     694:	10 82       	st	Z, r1
     696:	11 82       	std	Z+1, r1	; 0x01
     698:	62 83       	std	Z+2, r22	; 0x02
     69a:	13 82       	std	Z+3, r1	; 0x03
     69c:	55 83       	std	Z+5, r21	; 0x05
     69e:	44 83       	std	Z+4, r20	; 0x04
     6a0:	37 83       	std	Z+7, r19	; 0x07
     6a2:	26 83       	std	Z+6, r18	; 0x06
     6a4:	9c cf       	rjmp	.-200    	; 0x5de <os_timer_add>

000006a6 <timer_start>:
     6a6:	fc 01       	movw	r30, r24
     6a8:	80 81       	ld	r24, Z
     6aa:	88 23       	and	r24, r24
     6ac:	41 f4       	brne	.+16     	; 0x6be <timer_start+0x18>
     6ae:	81 e0       	ldi	r24, 0x01	; 1
     6b0:	80 83       	st	Z, r24
     6b2:	11 82       	std	Z+1, r1	; 0x01
     6b4:	13 82       	std	Z+3, r1	; 0x03
     6b6:	84 81       	ldd	r24, Z+4	; 0x04
     6b8:	95 81       	ldd	r25, Z+5	; 0x05
     6ba:	91 87       	std	Z+9, r25	; 0x09
     6bc:	80 87       	std	Z+8, r24	; 0x08
     6be:	cf 01       	movw	r24, r30
     6c0:	8e cf       	rjmp	.-228    	; 0x5de <os_timer_add>

000006c2 <timer_stop>:
     6c2:	fc 01       	movw	r30, r24
     6c4:	10 82       	st	Z, r1
     6c6:	11 82       	std	Z+1, r1	; 0x01
     6c8:	08 95       	ret

000006ca <main>:
     6ca:	cf 93       	push	r28
     6cc:	df 93       	push	r29
     6ce:	cd b7       	in	r28, 0x3d	; 61
     6d0:	de b7       	in	r29, 0x3e	; 62
     6d2:	27 97       	sbiw	r28, 0x07	; 7
     6d4:	0f b6       	in	r0, 0x3f	; 63
     6d6:	f8 94       	cli
     6d8:	de bf       	out	0x3e, r29	; 62
     6da:	0f be       	out	0x3f, r0	; 63
     6dc:	cd bf       	out	0x3d, r28	; 61
     6de:	09 ea       	ldi	r16, 0xA9	; 169
     6e0:	12 e0       	ldi	r17, 0x02	; 2
     6e2:	0f 2e       	mov	r0, r31
     6e4:	f4 e1       	ldi	r31, 0x14	; 20
     6e6:	af 2e       	mov	r10, r31
     6e8:	bb 24       	eor	r11, r11
     6ea:	f0 2d       	mov	r31, r0
     6ec:	a0 0e       	add	r10, r16
     6ee:	b1 1e       	adc	r11, r17
     6f0:	f8 01       	movw	r30, r16
     6f2:	11 92       	st	Z+, r1
     6f4:	11 92       	st	Z+, r1
     6f6:	ea 15       	cp	r30, r10
     6f8:	fb 05       	cpc	r31, r11
     6fa:	d9 f7       	brne	.-10     	; 0x6f2 <main+0x28>
     6fc:	c4 d0       	rcall	.+392    	; 0x886 <hw_timer_init>
     6fe:	97 d1       	rcall	.+814    	; 0xa2e <application_start>
     700:	44 24       	eor	r4, r4
     702:	55 24       	eor	r5, r5
     704:	33 24       	eor	r3, r3
     706:	70 2e       	mov	r7, r16
     708:	61 2e       	mov	r6, r17
     70a:	0f 2e       	mov	r0, r31
     70c:	f9 ea       	ldi	r31, 0xA9	; 169
     70e:	8f 2e       	mov	r8, r31
     710:	f2 e0       	ldi	r31, 0x02	; 2
     712:	9f 2e       	mov	r9, r31
     714:	f0 2d       	mov	r31, r0
     716:	9d dd       	rcall	.-1222   	; 0x252 <radio_tx_done>
     718:	88 23       	and	r24, r24
     71a:	09 f0       	breq	.+2      	; 0x71e <main+0x54>
     71c:	53 d3       	rcall	.+1702   	; 0xdc4 <application_radio_tx_done>
     71e:	03 de       	rcall	.-1018   	; 0x326 <radio_rxed>
     720:	88 23       	and	r24, r24
     722:	89 f1       	breq	.+98     	; 0x786 <main+0xbc>
     724:	8d eb       	ldi	r24, 0xBD	; 189
     726:	92 e0       	ldi	r25, 0x02	; 2
     728:	60 e8       	ldi	r22, 0x80	; 128
     72a:	ae 01       	movw	r20, r28
     72c:	4a 5f       	subi	r20, 0xFA	; 250
     72e:	5f 4f       	sbci	r21, 0xFF	; 255
     730:	9e 01       	movw	r18, r28
     732:	2c 5f       	subi	r18, 0xFC	; 252
     734:	3f 4f       	sbci	r19, 0xFF	; 255
     736:	8e 01       	movw	r16, r28
     738:	0d 5f       	subi	r16, 0xFD	; 253
     73a:	1f 4f       	sbci	r17, 0xFF	; 255
     73c:	ee 24       	eor	r14, r14
     73e:	ff 24       	eor	r15, r15
     740:	68 94       	set
     742:	e1 f8       	bld	r14, 1
     744:	ec 0e       	add	r14, r28
     746:	fd 1e       	adc	r15, r29
     748:	6e 01       	movw	r12, r28
     74a:	08 94       	sec
     74c:	c1 1c       	adc	r12, r1
     74e:	d1 1c       	adc	r13, r1
     750:	f0 dd       	rcall	.-1056   	; 0x332 <radio_recv>
     752:	08 2f       	mov	r16, r24
     754:	8b 81       	ldd	r24, Y+3	; 0x03
     756:	88 23       	and	r24, r24
     758:	b1 f0       	breq	.+44     	; 0x786 <main+0xbc>
     75a:	a3 de       	rcall	.-698    	; 0x4a2 <radio_getid>
     75c:	2e 81       	ldd	r18, Y+6	; 0x06
     75e:	3f 81       	ldd	r19, Y+7	; 0x07
     760:	82 17       	cp	r24, r18
     762:	93 07       	cpc	r25, r19
     764:	39 f0       	breq	.+14     	; 0x774 <main+0xaa>
     766:	8f ef       	ldi	r24, 0xFF	; 255
     768:	2f 3f       	cpi	r18, 0xFF	; 255
     76a:	38 07       	cpc	r19, r24
     76c:	19 f0       	breq	.+6      	; 0x774 <main+0xaa>
     76e:	96 de       	rcall	.-724    	; 0x49c <radio_rx_all>
     770:	88 23       	and	r24, r24
     772:	49 f0       	breq	.+18     	; 0x786 <main+0xbc>
     774:	6c 81       	ldd	r22, Y+4	; 0x04
     776:	7d 81       	ldd	r23, Y+5	; 0x05
     778:	8e 81       	ldd	r24, Y+6	; 0x06
     77a:	9f 81       	ldd	r25, Y+7	; 0x07
     77c:	40 2f       	mov	r20, r16
     77e:	50 e0       	ldi	r21, 0x00	; 0
     780:	2d eb       	ldi	r18, 0xBD	; 189
     782:	32 e0       	ldi	r19, 0x02	; 2
     784:	93 d1       	rcall	.+806    	; 0xaac <application_radio_rx_msg>
     786:	a5 d0       	rcall	.+330    	; 0x8d2 <hw_timer_now_us>
     788:	dc 01       	movw	r26, r24
     78a:	cb 01       	movw	r24, r22
     78c:	40 91 a4 02 	lds	r20, 0x02A4
     790:	50 91 a5 02 	lds	r21, 0x02A5
     794:	60 91 a6 02 	lds	r22, 0x02A6
     798:	70 91 a7 02 	lds	r23, 0x02A7
     79c:	48 17       	cp	r20, r24
     79e:	59 07       	cpc	r21, r25
     7a0:	6a 07       	cpc	r22, r26
     7a2:	7b 07       	cpc	r23, r27
     7a4:	78 f5       	brcc	.+94     	; 0x804 <main+0x13a>
     7a6:	95 d0       	rcall	.+298    	; 0x8d2 <hw_timer_now_us>
     7a8:	dc 01       	movw	r26, r24
     7aa:	cb 01       	movw	r24, r22
     7ac:	88 51       	subi	r24, 0x18	; 24
     7ae:	9c 4f       	sbci	r25, 0xFC	; 252
     7b0:	af 4f       	sbci	r26, 0xFF	; 255
     7b2:	bf 4f       	sbci	r27, 0xFF	; 255
     7b4:	80 93 a4 02 	sts	0x02A4, r24
     7b8:	90 93 a5 02 	sts	0x02A5, r25
     7bc:	a0 93 a6 02 	sts	0x02A6, r26
     7c0:	b0 93 a7 02 	sts	0x02A7, r27
     7c4:	07 2d       	mov	r16, r7
     7c6:	16 2d       	mov	r17, r6
     7c8:	d8 01       	movw	r26, r16
     7ca:	8d 91       	ld	r24, X+
     7cc:	9d 91       	ld	r25, X+
     7ce:	8d 01       	movw	r16, r26
     7d0:	61 e0       	ldi	r22, 0x01	; 1
     7d2:	36 df       	rcall	.-404    	; 0x640 <os_timer_tick>
     7d4:	0a 15       	cp	r16, r10
     7d6:	1b 05       	cpc	r17, r11
     7d8:	b9 f7       	brne	.-18     	; 0x7c8 <main+0xfe>
     7da:	08 94       	sec
     7dc:	41 1c       	adc	r4, r1
     7de:	51 1c       	adc	r5, r1
     7e0:	b8 ee       	ldi	r27, 0xE8	; 232
     7e2:	4b 16       	cp	r4, r27
     7e4:	b3 e0       	ldi	r27, 0x03	; 3
     7e6:	5b 06       	cpc	r5, r27
     7e8:	68 f0       	brcs	.+26     	; 0x804 <main+0x13a>
     7ea:	07 2d       	mov	r16, r7
     7ec:	16 2d       	mov	r17, r6
     7ee:	f8 01       	movw	r30, r16
     7f0:	81 91       	ld	r24, Z+
     7f2:	91 91       	ld	r25, Z+
     7f4:	8f 01       	movw	r16, r30
     7f6:	60 e0       	ldi	r22, 0x00	; 0
     7f8:	23 df       	rcall	.-442    	; 0x640 <os_timer_tick>
     7fa:	a0 16       	cp	r10, r16
     7fc:	b1 06       	cpc	r11, r17
     7fe:	b9 f7       	brne	.-18     	; 0x7ee <main+0x124>
     800:	44 24       	eor	r4, r4
     802:	55 24       	eor	r5, r5
     804:	a7 2d       	mov	r26, r7
     806:	b6 2d       	mov	r27, r6
     808:	00 e0       	ldi	r16, 0x00	; 0
     80a:	10 e0       	ldi	r17, 0x00	; 0
     80c:	ed 91       	ld	r30, X+
     80e:	fd 91       	ld	r31, X+
     810:	30 97       	sbiw	r30, 0x00	; 0
     812:	71 f1       	breq	.+92     	; 0x870 <main+0x1a6>
     814:	83 81       	ldd	r24, Z+3	; 0x03
     816:	88 23       	and	r24, r24
     818:	59 f1       	breq	.+86     	; 0x870 <main+0x1a6>
     81a:	cf 01       	movw	r24, r30
     81c:	25 d1       	rcall	.+586    	; 0xa68 <application_timer_tick>
     81e:	c8 01       	movw	r24, r16
     820:	88 0f       	add	r24, r24
     822:	99 1f       	adc	r25, r25
     824:	88 0d       	add	r24, r8
     826:	99 1d       	adc	r25, r9
     828:	dc 01       	movw	r26, r24
     82a:	ed 91       	ld	r30, X+
     82c:	fc 91       	ld	r31, X
     82e:	11 97       	sbiw	r26, 0x01	; 1
     830:	13 82       	std	Z+3, r1	; 0x03
     832:	81 81       	ldd	r24, Z+1	; 0x01
     834:	88 23       	and	r24, r24
     836:	41 f0       	breq	.+16     	; 0x848 <main+0x17e>
     838:	86 81       	ldd	r24, Z+6	; 0x06
     83a:	97 81       	ldd	r25, Z+7	; 0x07
     83c:	00 97       	sbiw	r24, 0x00	; 0
     83e:	21 f0       	breq	.+8      	; 0x848 <main+0x17e>
     840:	91 87       	std	Z+9, r25	; 0x09
     842:	80 87       	std	Z+8, r24	; 0x08
     844:	81 e0       	ldi	r24, 0x01	; 1
     846:	80 83       	st	Z, r24
     848:	11 82       	std	Z+1, r1	; 0x01
     84a:	8c dc       	rcall	.-1768   	; 0x164 <button_pressed>
     84c:	88 23       	and	r24, r24
     84e:	31 f0       	breq	.+12     	; 0x85c <main+0x192>
     850:	33 20       	and	r3, r3
     852:	21 f4       	brne	.+8      	; 0x85c <main+0x192>
     854:	d2 d2       	rcall	.+1444   	; 0xdfa <application_button_pressed>
     856:	33 24       	eor	r3, r3
     858:	33 94       	inc	r3
     85a:	5d cf       	rjmp	.-326    	; 0x716 <main+0x4c>
     85c:	87 dc       	rcall	.-1778   	; 0x16c <button_released>
     85e:	88 23       	and	r24, r24
     860:	09 f4       	brne	.+2      	; 0x864 <main+0x19a>
     862:	59 cf       	rjmp	.-334    	; 0x716 <main+0x4c>
     864:	33 20       	and	r3, r3
     866:	09 f4       	brne	.+2      	; 0x86a <main+0x1a0>
     868:	56 cf       	rjmp	.-340    	; 0x716 <main+0x4c>
     86a:	f6 d2       	rcall	.+1516   	; 0xe58 <application_button_released>
     86c:	33 24       	eor	r3, r3
     86e:	53 cf       	rjmp	.-346    	; 0x716 <main+0x4c>
     870:	0f 5f       	subi	r16, 0xFF	; 255
     872:	1f 4f       	sbci	r17, 0xFF	; 255
     874:	0a 30       	cpi	r16, 0x0A	; 10
     876:	11 05       	cpc	r17, r1
     878:	49 f6       	brne	.-110    	; 0x80c <main+0x142>
     87a:	e7 cf       	rjmp	.-50     	; 0x84a <main+0x180>

0000087c <hw_timer_cpuf>:
     87c:	60 e0       	ldi	r22, 0x00	; 0
     87e:	72 e1       	ldi	r23, 0x12	; 18
     880:	8a e7       	ldi	r24, 0x7A	; 122
     882:	90 e0       	ldi	r25, 0x00	; 0
     884:	08 95       	ret

00000886 <hw_timer_init>:
     886:	10 92 80 00 	sts	0x0080, r1
     88a:	81 e0       	ldi	r24, 0x01	; 1
     88c:	80 93 81 00 	sts	0x0081, r24
     890:	10 92 82 00 	sts	0x0082, r1
     894:	10 92 85 00 	sts	0x0085, r1
     898:	10 92 84 00 	sts	0x0084, r1
     89c:	10 92 6f 00 	sts	0x006F, r1
     8a0:	08 95       	ret

000008a2 <hw_timer_start>:
     8a2:	cf 93       	push	r28
     8a4:	df 93       	push	r29
     8a6:	ec 01       	movw	r28, r24
     8a8:	ee df       	rcall	.-36     	; 0x886 <hw_timer_init>
     8aa:	d0 93 85 00 	sts	0x0085, r29
     8ae:	c0 93 84 00 	sts	0x0084, r28
     8b2:	df 91       	pop	r29
     8b4:	cf 91       	pop	r28
     8b6:	08 95       	ret

000008b8 <hw_timer_overflow>:
     8b8:	81 e0       	ldi	r24, 0x01	; 1
     8ba:	b0 9b       	sbis	0x16, 0	; 22
     8bc:	80 e0       	ldi	r24, 0x00	; 0
     8be:	88 23       	and	r24, r24
     8c0:	11 f0       	breq	.+4      	; 0x8c6 <hw_timer_overflow+0xe>
     8c2:	91 e0       	ldi	r25, 0x01	; 1
     8c4:	96 bb       	out	0x16, r25	; 22
     8c6:	08 95       	ret

000008c8 <hw_timer_now>:
     8c8:	80 91 84 00 	lds	r24, 0x0084
     8cc:	90 91 85 00 	lds	r25, 0x0085
     8d0:	08 95       	ret

000008d2 <hw_timer_now_us>:
     8d2:	cf 92       	push	r12
     8d4:	df 92       	push	r13
     8d6:	ef 92       	push	r14
     8d8:	ff 92       	push	r15
     8da:	c0 90 84 00 	lds	r12, 0x0084
     8de:	d0 90 85 00 	lds	r13, 0x0085
     8e2:	d6 94       	lsr	r13
     8e4:	c7 94       	ror	r12
     8e6:	d6 94       	lsr	r13
     8e8:	c7 94       	ror	r12
     8ea:	d6 94       	lsr	r13
     8ec:	c7 94       	ror	r12
     8ee:	ee 24       	eor	r14, r14
     8f0:	ff 24       	eor	r15, r15
     8f2:	e2 df       	rcall	.-60     	; 0x8b8 <hw_timer_overflow>
     8f4:	88 23       	and	r24, r24
     8f6:	a1 f0       	breq	.+40     	; 0x920 <hw_timer_now_us+0x4e>
     8f8:	80 91 3d 03 	lds	r24, 0x033D
     8fc:	90 91 3e 03 	lds	r25, 0x033E
     900:	a0 91 3f 03 	lds	r26, 0x033F
     904:	b0 91 40 03 	lds	r27, 0x0340
     908:	80 50       	subi	r24, 0x00	; 0
     90a:	90 4e       	sbci	r25, 0xE0	; 224
     90c:	af 4f       	sbci	r26, 0xFF	; 255
     90e:	bf 4f       	sbci	r27, 0xFF	; 255
     910:	80 93 3d 03 	sts	0x033D, r24
     914:	90 93 3e 03 	sts	0x033E, r25
     918:	a0 93 3f 03 	sts	0x033F, r26
     91c:	b0 93 40 03 	sts	0x0340, r27
     920:	80 91 3d 03 	lds	r24, 0x033D
     924:	90 91 3e 03 	lds	r25, 0x033E
     928:	a0 91 3f 03 	lds	r26, 0x033F
     92c:	b0 91 40 03 	lds	r27, 0x0340
     930:	c8 0e       	add	r12, r24
     932:	d9 1e       	adc	r13, r25
     934:	ea 1e       	adc	r14, r26
     936:	fb 1e       	adc	r15, r27
     938:	6c 2d       	mov	r22, r12
     93a:	7d 2d       	mov	r23, r13
     93c:	8e 2d       	mov	r24, r14
     93e:	9f 2d       	mov	r25, r15
     940:	ff 90       	pop	r15
     942:	ef 90       	pop	r14
     944:	df 90       	pop	r13
     946:	cf 90       	pop	r12
     948:	08 95       	ret

0000094a <hw_timer_wait_micro>:
     94a:	8f 92       	push	r8
     94c:	9f 92       	push	r9
     94e:	af 92       	push	r10
     950:	bf 92       	push	r11
     952:	cf 92       	push	r12
     954:	df 92       	push	r13
     956:	ef 92       	push	r14
     958:	ff 92       	push	r15
     95a:	4c 01       	movw	r8, r24
     95c:	aa 24       	eor	r10, r10
     95e:	bb 24       	eor	r11, r11
     960:	88 0c       	add	r8, r8
     962:	99 1c       	adc	r9, r9
     964:	aa 1c       	adc	r10, r10
     966:	bb 1c       	adc	r11, r11
     968:	88 0c       	add	r8, r8
     96a:	99 1c       	adc	r9, r9
     96c:	aa 1c       	adc	r10, r10
     96e:	bb 1c       	adc	r11, r11
     970:	88 0c       	add	r8, r8
     972:	99 1c       	adc	r9, r9
     974:	aa 1c       	adc	r10, r10
     976:	bb 1c       	adc	r11, r11
     978:	80 e0       	ldi	r24, 0x00	; 0
     97a:	88 16       	cp	r8, r24
     97c:	80 e0       	ldi	r24, 0x00	; 0
     97e:	98 06       	cpc	r9, r24
     980:	81 e0       	ldi	r24, 0x01	; 1
     982:	a8 06       	cpc	r10, r24
     984:	80 e0       	ldi	r24, 0x00	; 0
     986:	b8 06       	cpc	r11, r24
     988:	78 f1       	brcs	.+94     	; 0x9e8 <hw_timer_wait_micro+0x9e>
     98a:	75 01       	movw	r14, r10
     98c:	64 01       	movw	r12, r8
     98e:	80 e0       	ldi	r24, 0x00	; 0
     990:	90 e0       	ldi	r25, 0x00	; 0
     992:	87 df       	rcall	.-242    	; 0x8a2 <hw_timer_start>
     994:	80 e0       	ldi	r24, 0x00	; 0
     996:	90 e0       	ldi	r25, 0x00	; 0
     998:	af ef       	ldi	r26, 0xFF	; 255
     99a:	bf ef       	ldi	r27, 0xFF	; 255
     99c:	c8 0e       	add	r12, r24
     99e:	d9 1e       	adc	r13, r25
     9a0:	ea 1e       	adc	r14, r26
     9a2:	fb 1e       	adc	r15, r27
     9a4:	89 df       	rcall	.-238    	; 0x8b8 <hw_timer_overflow>
     9a6:	88 23       	and	r24, r24
     9a8:	e9 f3       	breq	.-6      	; 0x9a4 <hw_timer_wait_micro+0x5a>
     9aa:	90 e0       	ldi	r25, 0x00	; 0
     9ac:	c9 16       	cp	r12, r25
     9ae:	90 e0       	ldi	r25, 0x00	; 0
     9b0:	d9 06       	cpc	r13, r25
     9b2:	91 e0       	ldi	r25, 0x01	; 1
     9b4:	e9 06       	cpc	r14, r25
     9b6:	90 e0       	ldi	r25, 0x00	; 0
     9b8:	f9 06       	cpc	r15, r25
     9ba:	48 f7       	brcc	.-46     	; 0x98e <hw_timer_wait_micro+0x44>
     9bc:	80 e0       	ldi	r24, 0x00	; 0
     9be:	90 e0       	ldi	r25, 0x00	; 0
     9c0:	af ef       	ldi	r26, 0xFF	; 255
     9c2:	bf ef       	ldi	r27, 0xFF	; 255
     9c4:	88 0e       	add	r8, r24
     9c6:	99 1e       	adc	r9, r25
     9c8:	aa 1e       	adc	r10, r26
     9ca:	bb 1e       	adc	r11, r27
     9cc:	b5 01       	movw	r22, r10
     9ce:	88 27       	eor	r24, r24
     9d0:	99 27       	eor	r25, r25
     9d2:	20 e0       	ldi	r18, 0x00	; 0
     9d4:	30 e0       	ldi	r19, 0x00	; 0
     9d6:	4f ef       	ldi	r20, 0xFF	; 255
     9d8:	5f ef       	ldi	r21, 0xFF	; 255
     9da:	3f d2       	rcall	.+1150   	; 0xe5a <__mulsi3>
     9dc:	dc 01       	movw	r26, r24
     9de:	cb 01       	movw	r24, r22
     9e0:	88 0e       	add	r8, r24
     9e2:	99 1e       	adc	r9, r25
     9e4:	aa 1e       	adc	r10, r26
     9e6:	bb 1e       	adc	r11, r27
     9e8:	c4 01       	movw	r24, r8
     9ea:	80 95       	com	r24
     9ec:	90 95       	com	r25
     9ee:	59 df       	rcall	.-334    	; 0x8a2 <hw_timer_start>
     9f0:	63 df       	rcall	.-314    	; 0x8b8 <hw_timer_overflow>
     9f2:	88 23       	and	r24, r24
     9f4:	e9 f3       	breq	.-6      	; 0x9f0 <hw_timer_wait_micro+0xa6>
     9f6:	ff 90       	pop	r15
     9f8:	ef 90       	pop	r14
     9fa:	df 90       	pop	r13
     9fc:	cf 90       	pop	r12
     9fe:	bf 90       	pop	r11
     a00:	af 90       	pop	r10
     a02:	9f 90       	pop	r9
     a04:	8f 90       	pop	r8
     a06:	08 95       	ret

00000a08 <hw_timer_wait_milli>:
     a08:	cf 93       	push	r28
     a0a:	df 93       	push	r29
     a0c:	ec 01       	movw	r28, r24
     a0e:	82 34       	cpi	r24, 0x42	; 66
     a10:	91 05       	cpc	r25, r1
     a12:	40 f0       	brcs	.+16     	; 0xa24 <hw_timer_wait_milli+0x1c>
     a14:	88 ee       	ldi	r24, 0xE8	; 232
     a16:	9d ef       	ldi	r25, 0xFD	; 253
     a18:	98 df       	rcall	.-208    	; 0x94a <hw_timer_wait_micro>
     a1a:	c1 54       	subi	r28, 0x41	; 65
     a1c:	d0 40       	sbci	r29, 0x00	; 0
     a1e:	c2 34       	cpi	r28, 0x42	; 66
     a20:	d1 05       	cpc	r29, r1
     a22:	c0 f7       	brcc	.-16     	; 0xa14 <hw_timer_wait_milli+0xc>
     a24:	ce 01       	movw	r24, r28
     a26:	91 df       	rcall	.-222    	; 0x94a <hw_timer_wait_micro>
     a28:	df 91       	pop	r29
     a2a:	cf 91       	pop	r28
     a2c:	08 95       	ret

00000a2e <application_start>:
     a2e:	a2 db       	rcall	.-2236   	; 0x174 <leds_init>
     a30:	96 db       	rcall	.-2260   	; 0x15e <button_init>
     a32:	61 e0       	ldi	r22, 0x01	; 1
     a34:	83 e0       	ldi	r24, 0x03	; 3
     a36:	90 e0       	ldi	r25, 0x00	; 0
     a38:	bc db       	rcall	.-2184   	; 0x1b2 <radio_init>
     a3a:	81 e0       	ldi	r24, 0x01	; 1
     a3c:	12 dd       	rcall	.-1500   	; 0x462 <radio_set_power>
     a3e:	f7 db       	rcall	.-2066   	; 0x22e <radio_start>
	leds_init();
	button_init();
	radio_init(NODE_ID, true); //true indicates receives radio message for ALL nodes
	radio_set_power(1);
	radio_start();
	serial_init(9600);
     a40:	60 e8       	ldi	r22, 0x80	; 128
     a42:	75 e2       	ldi	r23, 0x25	; 37
     a44:	80 e0       	ldi	r24, 0x00	; 0
     a46:	90 e0       	ldi	r25, 0x00	; 0
     a48:	31 dd       	rcall	.-1438   	; 0x4ac <serial_init>
	printf("test\r\n");
     a4a:	80 e1       	ldi	r24, 0x10	; 16
     a4c:	92 e0       	ldi	r25, 0x02	; 2
     a4e:	a9 d2       	rcall	.+1362   	; 0xfa2 <puts>
	
	timer_init(&timer1, TIMER_MILLISECONDS, 1000, 100);
     a50:	24 e6       	ldi	r18, 0x64	; 100
     a52:	30 e0       	ldi	r19, 0x00	; 0
     a54:	48 ee       	ldi	r20, 0xE8	; 232
     a56:	53 e0       	ldi	r21, 0x03	; 3
     a58:	61 e0       	ldi	r22, 0x01	; 1
     a5a:	8c e4       	ldi	r24, 0x4C	; 76
     a5c:	93 e0       	ldi	r25, 0x03	; 3
     a5e:	19 de       	rcall	.-974    	; 0x692 <timer_init>
	timer_start(&timer1);
     a60:	8c e4       	ldi	r24, 0x4C	; 76
     a62:	93 e0       	ldi	r25, 0x03	; 3
     a64:	20 ce       	rjmp	.-960    	; 0x6a6 <timer_start>
     a66:	08 95       	ret

00000a68 <application_timer_tick>:
//
// Timer tick handler
//
void application_timer_tick(timer *t)
{
	if(canSend){
     a68:	80 91 4a 03 	lds	r24, 0x034A
     a6c:	88 23       	and	r24, r24
     a6e:	e9 f0       	breq	.+58     	; 0xaaa <application_timer_tick+0x42>
		printf("sending a message\r\n");
     a70:	86 e1       	ldi	r24, 0x16	; 22
     a72:	92 e0       	ldi	r25, 0x02	; 2
     a74:	96 d2       	rcall	.+1324   	; 0xfa2 <puts>
		if(tx_buffer_inuse == false)
     a76:	80 91 4b 03 	lds	r24, 0x034B
     a7a:	81 11       	cpse	r24, r1
     a7c:	16 c0       	rjmp	.+44     	; 0xaaa <application_timer_tick+0x42>
		{
			tx_buffer_inuse = true;
     a7e:	81 e0       	ldi	r24, 0x01	; 1
     a80:	80 93 4b 03 	sts	0x034B, r24
			canSend = false;
     a84:	10 92 4a 03 	sts	0x034A, r1
			
			memcpy(&tx_buffer, &newPkt, sizeof(Packet));
     a88:	84 e1       	ldi	r24, 0x14	; 20
     a8a:	ed e0       	ldi	r30, 0x0D	; 13
     a8c:	f4 e0       	ldi	r31, 0x04	; 4
     a8e:	ad e8       	ldi	r26, 0x8D	; 141
     a90:	b3 e0       	ldi	r27, 0x03	; 3
     a92:	01 90       	ld	r0, Z+
     a94:	0d 92       	st	X+, r0
     a96:	8a 95       	dec	r24
     a98:	e1 f7       	brne	.-8      	; 0xa92 <application_timer_tick+0x2a>
			
			radio_send(tx_buffer, sizeof(Packet), newPkt.dst);
     a9a:	40 91 0d 04 	lds	r20, 0x040D
     a9e:	50 91 0e 04 	lds	r21, 0x040E
     aa2:	64 e1       	ldi	r22, 0x14	; 20
     aa4:	8d e8       	ldi	r24, 0x8D	; 141
     aa6:	93 e0       	ldi	r25, 0x03	; 3
     aa8:	d9 cb       	rjmp	.-2126   	; 0x25c <radio_send>
     aaa:	08 95       	ret

00000aac <application_radio_rx_msg>:
//
// This function is called whenever a radio message is received
// You must copy any data you need out of the packet - as 'msgdata' will be overwritten by the next message
//
void application_radio_rx_msg(unsigned short dst, unsigned short src, int len, unsigned char *msgdata)
{
     aac:	6f 92       	push	r6
     aae:	7f 92       	push	r7
     ab0:	8f 92       	push	r8
     ab2:	9f 92       	push	r9
     ab4:	af 92       	push	r10
     ab6:	bf 92       	push	r11
     ab8:	cf 92       	push	r12
     aba:	df 92       	push	r13
     abc:	ef 92       	push	r14
     abe:	ff 92       	push	r15
     ac0:	0f 93       	push	r16
     ac2:	1f 93       	push	r17
     ac4:	cf 93       	push	r28
     ac6:	df 93       	push	r29
     ac8:	cd b7       	in	r28, 0x3d	; 61
     aca:	de b7       	in	r29, 0x3e	; 62
     acc:	61 97       	sbiw	r28, 0x11	; 17
     ace:	0f b6       	in	r0, 0x3f	; 63
     ad0:	f8 94       	cli
     ad2:	de bf       	out	0x3e, r29	; 62
     ad4:	0f be       	out	0x3f, r0	; 63
     ad6:	cd bf       	out	0x3d, r28	; 61
     ad8:	78 2e       	mov	r7, r24
     ada:	69 2e       	mov	r6, r25
     adc:	8b 01       	movw	r16, r22
     ade:	5a 01       	movw	r10, r20
     ae0:	49 01       	movw	r8, r18
	printf("dst: %d\r\n", dst);
     ae2:	9f 93       	push	r25
     ae4:	8f 93       	push	r24
     ae6:	89 e2       	ldi	r24, 0x29	; 41
     ae8:	92 e0       	ldi	r25, 0x02	; 2
     aea:	9f 93       	push	r25
     aec:	8f 93       	push	r24
     aee:	43 d2       	rcall	.+1158   	; 0xf76 <printf>
	printf("src: %d\r\n", src);
     af0:	1f 93       	push	r17
     af2:	0f 93       	push	r16
     af4:	83 e3       	ldi	r24, 0x33	; 51
     af6:	92 e0       	ldi	r25, 0x02	; 2
     af8:	9f 93       	push	r25
     afa:	8f 93       	push	r24
     afc:	3c d2       	rcall	.+1144   	; 0xf76 <printf>
	printf("received a message\r\n");
     afe:	8d e3       	ldi	r24, 0x3D	; 61
     b00:	92 e0       	ldi	r25, 0x02	; 2
     b02:	4f d2       	rcall	.+1182   	; 0xfa2 <puts>
	char string[17];
	for(int i = 4; i<len; i++)
     b04:	0f b6       	in	r0, 0x3f	; 63
     b06:	f8 94       	cli
     b08:	de bf       	out	0x3e, r29	; 62
     b0a:	0f be       	out	0x3f, r0	; 63
     b0c:	cd bf       	out	0x3d, r28	; 61
     b0e:	95 e0       	ldi	r25, 0x05	; 5
     b10:	a9 16       	cp	r10, r25
     b12:	b1 04       	cpc	r11, r1
     b14:	bc f0       	brlt	.+46     	; 0xb44 <application_radio_rx_msg+0x98>
     b16:	74 01       	movw	r14, r8
     b18:	e4 e0       	ldi	r30, 0x04	; 4
     b1a:	ee 0e       	add	r14, r30
     b1c:	f1 1c       	adc	r15, r1
     b1e:	ce 01       	movw	r24, r28
     b20:	01 96       	adiw	r24, 0x01	; 1
     b22:	6c 01       	movw	r12, r24
     b24:	8a 0c       	add	r8, r10
     b26:	9b 1c       	adc	r9, r11
     b28:	57 01       	movw	r10, r14
	{
		printf("%c", msgdata[i]);
     b2a:	f7 01       	movw	r30, r14
     b2c:	81 91       	ld	r24, Z+
     b2e:	7f 01       	movw	r14, r30
     b30:	90 e0       	ldi	r25, 0x00	; 0
     b32:	32 d2       	rcall	.+1124   	; 0xf98 <putchar>
		string[i-4] = msgdata[i];
     b34:	f5 01       	movw	r30, r10
     b36:	80 81       	ld	r24, Z
     b38:	f6 01       	movw	r30, r12
     b3a:	81 93       	st	Z+, r24
     b3c:	6f 01       	movw	r12, r30
{
	printf("dst: %d\r\n", dst);
	printf("src: %d\r\n", src);
	printf("received a message\r\n");
	char string[17];
	for(int i = 4; i<len; i++)
     b3e:	e8 14       	cp	r14, r8
     b40:	f9 04       	cpc	r15, r9
     b42:	91 f7       	brne	.-28     	; 0xb28 <application_radio_rx_msg+0x7c>
	{
		printf("%c", msgdata[i]);
		string[i-4] = msgdata[i];
	}
	string[16] = '\0';
     b44:	19 8a       	std	Y+17, r1	; 0x11

	if(!canOpen){
     b46:	80 91 46 03 	lds	r24, 0x0346
     b4a:	81 11       	cpse	r24, r1
     b4c:	bc c0       	rjmp	.+376    	; 0xcc6 <application_radio_rx_msg+0x21a>
		if(firstPacket){
     b4e:	80 91 0f 02 	lds	r24, 0x020F
     b52:	88 23       	and	r24, r24
     b54:	89 f1       	breq	.+98     	; 0xbb8 <application_radio_rx_msg+0x10c>
			printf("1\r\n");
     b56:	81 e5       	ldi	r24, 0x51	; 81
     b58:	92 e0       	ldi	r25, 0x02	; 2
     b5a:	23 d2       	rcall	.+1094   	; 0xfa2 <puts>
			gate = dst;
     b5c:	70 92 67 03 	sts	0x0367, r7
     b60:	60 92 68 03 	sts	0x0368, r6
			opener = src;
     b64:	10 93 6a 03 	sts	0x036A, r17
     b68:	00 93 69 03 	sts	0x0369, r16
			
			printf("gate: %d\r\n", gate);
     b6c:	6f 92       	push	r6
     b6e:	7f 92       	push	r7
     b70:	84 e5       	ldi	r24, 0x54	; 84
     b72:	92 e0       	ldi	r25, 0x02	; 2
     b74:	9f 93       	push	r25
     b76:	8f 93       	push	r24
     b78:	fe d1       	rcall	.+1020   	; 0xf76 <printf>
			printf("opener: %d\r\n", opener);
     b7a:	80 91 6a 03 	lds	r24, 0x036A
     b7e:	8f 93       	push	r24
     b80:	80 91 69 03 	lds	r24, 0x0369
     b84:	8f 93       	push	r24
     b86:	8f e5       	ldi	r24, 0x5F	; 95
     b88:	92 e0       	ldi	r25, 0x02	; 2
     b8a:	9f 93       	push	r25
     b8c:	8f 93       	push	r24
     b8e:	f3 d1       	rcall	.+998    	; 0xf76 <printf>
			
			sprintf(openKeyword, string);
     b90:	ce 01       	movw	r24, r28
     b92:	01 96       	adiw	r24, 0x01	; 1
     b94:	9f 93       	push	r25
     b96:	8f 93       	push	r24
     b98:	8b e6       	ldi	r24, 0x6B	; 107
     b9a:	93 e0       	ldi	r25, 0x03	; 3
     b9c:	9f 93       	push	r25
     b9e:	8f 93       	push	r24
     ba0:	2d d2       	rcall	.+1114   	; 0xffc <sprintf>
			firstPacket = false;
     ba2:	10 92 0f 02 	sts	0x020F, r1
			secondPacket = true;
     ba6:	81 e0       	ldi	r24, 0x01	; 1
     ba8:	80 93 49 03 	sts	0x0349, r24
     bac:	0f b6       	in	r0, 0x3f	; 63
     bae:	f8 94       	cli
     bb0:	de bf       	out	0x3e, r29	; 62
     bb2:	0f be       	out	0x3f, r0	; 63
     bb4:	cd bf       	out	0x3d, r28	; 61
     bb6:	f1 c0       	rjmp	.+482    	; 0xd9a <application_radio_rx_msg+0x2ee>
		}
		else if(src == gate && secondPacket){
     bb8:	80 91 67 03 	lds	r24, 0x0367
     bbc:	90 91 68 03 	lds	r25, 0x0368
     bc0:	08 17       	cp	r16, r24
     bc2:	19 07       	cpc	r17, r25
     bc4:	d1 f4       	brne	.+52     	; 0xbfa <application_radio_rx_msg+0x14e>
     bc6:	80 91 49 03 	lds	r24, 0x0349
     bca:	88 23       	and	r24, r24
     bcc:	b1 f0       	breq	.+44     	; 0xbfa <application_radio_rx_msg+0x14e>
			printf("2\r\n");
     bce:	8c e6       	ldi	r24, 0x6C	; 108
     bd0:	92 e0       	ldi	r25, 0x02	; 2
     bd2:	e7 d1       	rcall	.+974    	; 0xfa2 <puts>
			sprintf(challenge, string);
     bd4:	ce 01       	movw	r24, r28
     bd6:	01 96       	adiw	r24, 0x01	; 1
     bd8:	9f 93       	push	r25
     bda:	8f 93       	push	r24
     bdc:	8c e7       	ldi	r24, 0x7C	; 124
     bde:	93 e0       	ldi	r25, 0x03	; 3
     be0:	9f 93       	push	r25
     be2:	8f 93       	push	r24
     be4:	0b d2       	rcall	.+1046   	; 0xffc <sprintf>
			secondPacket = false;
     be6:	10 92 49 03 	sts	0x0349, r1
			thirdPacket = true;
     bea:	81 e0       	ldi	r24, 0x01	; 1
     bec:	80 93 48 03 	sts	0x0348, r24
     bf0:	0f 90       	pop	r0
     bf2:	0f 90       	pop	r0
     bf4:	0f 90       	pop	r0
     bf6:	0f 90       	pop	r0
     bf8:	d0 c0       	rjmp	.+416    	; 0xd9a <application_radio_rx_msg+0x2ee>
		}
		else if(src == opener && thirdPacket){
     bfa:	80 91 69 03 	lds	r24, 0x0369
     bfe:	90 91 6a 03 	lds	r25, 0x036A
     c02:	08 17       	cp	r16, r24
     c04:	19 07       	cpc	r17, r25
     c06:	d1 f4       	brne	.+52     	; 0xc3c <application_radio_rx_msg+0x190>
     c08:	80 91 48 03 	lds	r24, 0x0348
     c0c:	88 23       	and	r24, r24
     c0e:	b1 f0       	breq	.+44     	; 0xc3c <application_radio_rx_msg+0x190>
			printf("3\r\n");
     c10:	8f e6       	ldi	r24, 0x6F	; 111
     c12:	92 e0       	ldi	r25, 0x02	; 2
     c14:	c6 d1       	rcall	.+908    	; 0xfa2 <puts>
			sprintf(response,string);
     c16:	ce 01       	movw	r24, r28
     c18:	01 96       	adiw	r24, 0x01	; 1
     c1a:	9f 93       	push	r25
     c1c:	8f 93       	push	r24
     c1e:	86 e5       	ldi	r24, 0x56	; 86
     c20:	93 e0       	ldi	r25, 0x03	; 3
     c22:	9f 93       	push	r25
     c24:	8f 93       	push	r24
     c26:	ea d1       	rcall	.+980    	; 0xffc <sprintf>
			thirdPacket = false;
     c28:	10 92 48 03 	sts	0x0348, r1
			fourthPacket = true;
     c2c:	81 e0       	ldi	r24, 0x01	; 1
     c2e:	80 93 47 03 	sts	0x0347, r24
     c32:	0f 90       	pop	r0
     c34:	0f 90       	pop	r0
     c36:	0f 90       	pop	r0
     c38:	0f 90       	pop	r0
     c3a:	af c0       	rjmp	.+350    	; 0xd9a <application_radio_rx_msg+0x2ee>
		}
		//going to assume that the attacker will know if the attack is successful or not (ack or nack). In reality user could input into device that the opening was successful or not.
		else if(fourthPacket && strcmp(string, "ACKACKacACKACKac") == 0){
     c3c:	80 91 47 03 	lds	r24, 0x0347
     c40:	88 23       	and	r24, r24
     c42:	09 f4       	brne	.+2      	; 0xc46 <application_radio_rx_msg+0x19a>
     c44:	aa c0       	rjmp	.+340    	; 0xd9a <application_radio_rx_msg+0x2ee>
     c46:	62 e7       	ldi	r22, 0x72	; 114
     c48:	72 e0       	ldi	r23, 0x02	; 2
     c4a:	ce 01       	movw	r24, r28
     c4c:	01 96       	adiw	r24, 0x01	; 1
     c4e:	75 d1       	rcall	.+746    	; 0xf3a <strcmp>
     c50:	89 2b       	or	r24, r25
     c52:	09 f5       	brne	.+66     	; 0xc96 <application_radio_rx_msg+0x1ea>
			//the opening was successful - there should be some recognisable difference between the challenge and response.
			//going to simplify and assume its an addition. Would be better to learn what the difference is.
			printf("4\r\n");
     c54:	83 e8       	ldi	r24, 0x83	; 131
     c56:	92 e0       	ldi	r25, 0x02	; 2
     c58:	a4 d1       	rcall	.+840    	; 0xfa2 <puts>
			canOpen = true;
     c5a:	81 e0       	ldi	r24, 0x01	; 1
     c5c:	80 93 46 03 	sts	0x0346, r24
			difference = atol(response) - atol(challenge);
     c60:	86 e5       	ldi	r24, 0x56	; 86
     c62:	93 e0       	ldi	r25, 0x03	; 3
     c64:	44 d1       	rcall	.+648    	; 0xeee <atol>
     c66:	6b 01       	movw	r12, r22
     c68:	7c 01       	movw	r14, r24
     c6a:	8c e7       	ldi	r24, 0x7C	; 124
     c6c:	93 e0       	ldi	r25, 0x03	; 3
     c6e:	3f d1       	rcall	.+638    	; 0xeee <atol>
     c70:	c6 1a       	sub	r12, r22
     c72:	d7 0a       	sbc	r13, r23
     c74:	e8 0a       	sbc	r14, r24
     c76:	f9 0a       	sbc	r15, r25
     c78:	c0 92 41 03 	sts	0x0341, r12
     c7c:	d0 92 42 03 	sts	0x0342, r13
     c80:	e0 92 43 03 	sts	0x0343, r14
     c84:	f0 92 44 03 	sts	0x0344, r15
			
			leds_off(LED_RED);
     c88:	83 e0       	ldi	r24, 0x03	; 3
     c8a:	87 da       	rcall	.-2802   	; 0x19a <leds_off>
			leds_on(LED_ORANGE);
     c8c:	82 e0       	ldi	r24, 0x02	; 2
     c8e:	79 da       	rcall	.-2830   	; 0x182 <leds_on>
			leds_off(LED_GREEN);
     c90:	81 e0       	ldi	r24, 0x01	; 1
     c92:	83 da       	rcall	.-2810   	; 0x19a <leds_off>
     c94:	82 c0       	rjmp	.+260    	; 0xd9a <application_radio_rx_msg+0x2ee>
		}
		else if(fourthPacket && strcmp(string, "NACKNACKNACKNACK") == 0){
     c96:	66 e8       	ldi	r22, 0x86	; 134
     c98:	72 e0       	ldi	r23, 0x02	; 2
     c9a:	ce 01       	movw	r24, r28
     c9c:	01 96       	adiw	r24, 0x01	; 1
     c9e:	4d d1       	rcall	.+666    	; 0xf3a <strcmp>
     ca0:	89 2b       	or	r24, r25
     ca2:	09 f0       	breq	.+2      	; 0xca6 <application_radio_rx_msg+0x1fa>
     ca4:	7a c0       	rjmp	.+244    	; 0xd9a <application_radio_rx_msg+0x2ee>
			//the opening wasn't successful, so the learned challenge and response we learned are useless.
			sprintf(challenge,"");
     ca6:	10 92 7c 03 	sts	0x037C, r1
			sprintf(response, "");
     caa:	10 92 56 03 	sts	0x0356, r1
			leds_off(LED_GREEN);
     cae:	81 e0       	ldi	r24, 0x01	; 1
     cb0:	74 da       	rcall	.-2840   	; 0x19a <leds_off>
			leds_off(LED_ORANGE);
     cb2:	82 e0       	ldi	r24, 0x02	; 2
     cb4:	72 da       	rcall	.-2844   	; 0x19a <leds_off>
			leds_on(LED_RED);
     cb6:	83 e0       	ldi	r24, 0x03	; 3
     cb8:	64 da       	rcall	.-2872   	; 0x182 <leds_on>
			firstPacket = true;
     cba:	81 e0       	ldi	r24, 0x01	; 1
     cbc:	80 93 0f 02 	sts	0x020F, r24
			fourthPacket = false;
     cc0:	10 92 47 03 	sts	0x0347, r1
     cc4:	6a c0       	rjmp	.+212    	; 0xd9a <application_radio_rx_msg+0x2ee>
		}	
	}
	else
	{
		if(strcmp(string, "NACKNACKNACKNACK") == 0){
     cc6:	66 e8       	ldi	r22, 0x86	; 134
     cc8:	72 e0       	ldi	r23, 0x02	; 2
     cca:	ce 01       	movw	r24, r28
     ccc:	01 96       	adiw	r24, 0x01	; 1
     cce:	35 d1       	rcall	.+618    	; 0xf3a <strcmp>
     cd0:	89 2b       	or	r24, r25
     cd2:	39 f4       	brne	.+14     	; 0xce2 <application_radio_rx_msg+0x236>
			//Damn.
			leds_off(LED_GREEN);
     cd4:	81 e0       	ldi	r24, 0x01	; 1
     cd6:	61 da       	rcall	.-2878   	; 0x19a <leds_off>
			leds_off(LED_ORANGE);
     cd8:	82 e0       	ldi	r24, 0x02	; 2
     cda:	5f da       	rcall	.-2882   	; 0x19a <leds_off>
			leds_on(LED_RED);
     cdc:	83 e0       	ldi	r24, 0x03	; 3
     cde:	51 da       	rcall	.-2910   	; 0x182 <leds_on>
     ce0:	5c c0       	rjmp	.+184    	; 0xd9a <application_radio_rx_msg+0x2ee>
		}
		else if(strcmp(string, "ACKACKacACKACKac") == 0){
     ce2:	62 e7       	ldi	r22, 0x72	; 114
     ce4:	72 e0       	ldi	r23, 0x02	; 2
     ce6:	ce 01       	movw	r24, r28
     ce8:	01 96       	adiw	r24, 0x01	; 1
     cea:	27 d1       	rcall	.+590    	; 0xf3a <strcmp>
     cec:	89 2b       	or	r24, r25
     cee:	39 f4       	brne	.+14     	; 0xcfe <application_radio_rx_msg+0x252>
			//Yes, gate has opened!
			leds_off(LED_RED);
     cf0:	83 e0       	ldi	r24, 0x03	; 3
     cf2:	53 da       	rcall	.-2906   	; 0x19a <leds_off>
			leds_off(LED_ORANGE);
     cf4:	82 e0       	ldi	r24, 0x02	; 2
     cf6:	51 da       	rcall	.-2910   	; 0x19a <leds_off>
			leds_on(LED_GREEN);		
     cf8:	81 e0       	ldi	r24, 0x01	; 1
     cfa:	43 da       	rcall	.-2938   	; 0x182 <leds_on>
     cfc:	4e c0       	rjmp	.+156    	; 0xd9a <application_radio_rx_msg+0x2ee>
		}
		else{
			if(src == gate){
     cfe:	80 91 67 03 	lds	r24, 0x0367
     d02:	90 91 68 03 	lds	r25, 0x0368
     d06:	08 17       	cp	r16, r24
     d08:	19 07       	cpc	r17, r25
     d0a:	09 f0       	breq	.+2      	; 0xd0e <application_radio_rx_msg+0x262>
     d0c:	46 c0       	rjmp	.+140    	; 0xd9a <application_radio_rx_msg+0x2ee>
				if(awaitingResponse){
     d0e:	80 91 45 03 	lds	r24, 0x0345
     d12:	88 23       	and	r24, r24
     d14:	09 f4       	brne	.+2      	; 0xd18 <application_radio_rx_msg+0x26c>
     d16:	41 c0       	rjmp	.+130    	; 0xd9a <application_radio_rx_msg+0x2ee>
					long temp1 = atol(string);
     d18:	ce 01       	movw	r24, r28
     d1a:	01 96       	adiw	r24, 0x01	; 1
     d1c:	e8 d0       	rcall	.+464    	; 0xeee <atol>
					temp1 += difference;
     d1e:	c0 90 41 03 	lds	r12, 0x0341
     d22:	d0 90 42 03 	lds	r13, 0x0342
     d26:	e0 90 43 03 	lds	r14, 0x0343
     d2a:	f0 90 44 03 	lds	r15, 0x0344
     d2e:	dc 01       	movw	r26, r24
     d30:	cb 01       	movw	r24, r22
     d32:	8c 0d       	add	r24, r12
     d34:	9d 1d       	adc	r25, r13
     d36:	ae 1d       	adc	r26, r14
     d38:	bf 1d       	adc	r27, r15

					newPkt.dst = src;
     d3a:	10 93 0e 04 	sts	0x040E, r17
     d3e:	00 93 0d 04 	sts	0x040D, r16
					if(opener != 0){
     d42:	20 91 69 03 	lds	r18, 0x0369
     d46:	30 91 6a 03 	lds	r19, 0x036A
     d4a:	21 15       	cp	r18, r1
     d4c:	31 05       	cpc	r19, r1
     d4e:	29 f0       	breq	.+10     	; 0xd5a <application_radio_rx_msg+0x2ae>
						newPkt.src = opener;
     d50:	30 93 10 04 	sts	0x0410, r19
     d54:	20 93 0f 04 	sts	0x040F, r18
     d58:	06 c0       	rjmp	.+12     	; 0xd66 <application_radio_rx_msg+0x2ba>
					}
					else{
						newPkt.src = NODE_ID;
     d5a:	23 e0       	ldi	r18, 0x03	; 3
     d5c:	30 e0       	ldi	r19, 0x00	; 0
     d5e:	30 93 10 04 	sts	0x0410, r19
     d62:	20 93 0f 04 	sts	0x040F, r18
					}
					sprintf(newPkt.dt, "%lu", temp1);
     d66:	bf 93       	push	r27
     d68:	af 93       	push	r26
     d6a:	9f 93       	push	r25
     d6c:	8f 93       	push	r24
     d6e:	87 e9       	ldi	r24, 0x97	; 151
     d70:	92 e0       	ldi	r25, 0x02	; 2
     d72:	9f 93       	push	r25
     d74:	8f 93       	push	r24
     d76:	81 e1       	ldi	r24, 0x11	; 17
     d78:	94 e0       	ldi	r25, 0x04	; 4
     d7a:	9f 93       	push	r25
     d7c:	8f 93       	push	r24
     d7e:	3e d1       	rcall	.+636    	; 0xffc <sprintf>
					//canSend = true;
					
					leds_off(LED_RED);
     d80:	83 e0       	ldi	r24, 0x03	; 3
     d82:	0b da       	rcall	.-3050   	; 0x19a <leds_off>
					leds_on(LED_ORANGE);
     d84:	82 e0       	ldi	r24, 0x02	; 2
     d86:	fd d9       	rcall	.-3078   	; 0x182 <leds_on>
					leds_off(LED_GREEN);
     d88:	81 e0       	ldi	r24, 0x01	; 1
     d8a:	07 da       	rcall	.-3058   	; 0x19a <leds_off>
					awaitingResponse = false;
     d8c:	10 92 45 03 	sts	0x0345, r1
     d90:	0f b6       	in	r0, 0x3f	; 63
     d92:	f8 94       	cli
     d94:	de bf       	out	0x3e, r29	; 62
     d96:	0f be       	out	0x3f, r0	; 63
     d98:	cd bf       	out	0x3d, r28	; 61
				}
				
			}
		}
	}
}
     d9a:	61 96       	adiw	r28, 0x11	; 17
     d9c:	0f b6       	in	r0, 0x3f	; 63
     d9e:	f8 94       	cli
     da0:	de bf       	out	0x3e, r29	; 62
     da2:	0f be       	out	0x3f, r0	; 63
     da4:	cd bf       	out	0x3d, r28	; 61
     da6:	df 91       	pop	r29
     da8:	cf 91       	pop	r28
     daa:	1f 91       	pop	r17
     dac:	0f 91       	pop	r16
     dae:	ff 90       	pop	r15
     db0:	ef 90       	pop	r14
     db2:	df 90       	pop	r13
     db4:	cf 90       	pop	r12
     db6:	bf 90       	pop	r11
     db8:	af 90       	pop	r10
     dba:	9f 90       	pop	r9
     dbc:	8f 90       	pop	r8
     dbe:	7f 90       	pop	r7
     dc0:	6f 90       	pop	r6
     dc2:	08 95       	ret

00000dc4 <application_radio_tx_done>:
// This function is called whenever a radio message has been transmitted
// You need to free up the transmit buffer here
//
void application_radio_tx_done()
{
	tx_buffer_inuse = false;
     dc4:	10 92 4b 03 	sts	0x034B, r1
     dc8:	ed e8       	ldi	r30, 0x8D	; 141
     dca:	f3 e0       	ldi	r31, 0x03	; 3
     dcc:	8d e0       	ldi	r24, 0x0D	; 13
     dce:	94 e0       	ldi	r25, 0x04	; 4
	
	//empty buffers after data has been sent
	for(int j=0; j<RADIO_MAX_LEN; j++)
	{
		tx_buffer[j] = 0x00;
     dd0:	11 92       	st	Z+, r1
void application_radio_tx_done()
{
	tx_buffer_inuse = false;
	
	//empty buffers after data has been sent
	for(int j=0; j<RADIO_MAX_LEN; j++)
     dd2:	e8 17       	cp	r30, r24
     dd4:	f9 07       	cpc	r31, r25
     dd6:	e1 f7       	brne	.-8      	; 0xdd0 <application_radio_tx_done+0xc>
	{
		tx_buffer[j] = 0x00;
	}
	newPkt.dst = 0x00;
     dd8:	10 92 0e 04 	sts	0x040E, r1
     ddc:	10 92 0d 04 	sts	0x040D, r1
	newPkt.src = 0x00;
     de0:	10 92 10 04 	sts	0x0410, r1
     de4:	10 92 0f 04 	sts	0x040F, r1
     de8:	e1 e1       	ldi	r30, 0x11	; 17
     dea:	f4 e0       	ldi	r31, 0x04	; 4
     dec:	81 e2       	ldi	r24, 0x21	; 33
     dee:	94 e0       	ldi	r25, 0x04	; 4
	for(int i=0;i<sizeof(newPkt.dt);i++){
		newPkt.dt[i] = 0;
     df0:	11 92       	st	Z+, r1
	{
		tx_buffer[j] = 0x00;
	}
	newPkt.dst = 0x00;
	newPkt.src = 0x00;
	for(int i=0;i<sizeof(newPkt.dt);i++){
     df2:	e8 17       	cp	r30, r24
     df4:	f9 07       	cpc	r31, r25
     df6:	e1 f7       	brne	.-8      	; 0xdf0 <application_radio_tx_done+0x2c>
		newPkt.dt[i] = 0;
	}
}
     df8:	08 95       	ret

00000dfa <application_button_pressed>:

void application_button_pressed()
{
     dfa:	cf 93       	push	r28
	if(canOpen){
     dfc:	80 91 46 03 	lds	r24, 0x0346
     e00:	88 23       	and	r24, r24
     e02:	41 f1       	breq	.+80     	; 0xe54 <application_button_pressed+0x5a>
		newPkt.dst = gate;
     e04:	80 91 67 03 	lds	r24, 0x0367
     e08:	90 91 68 03 	lds	r25, 0x0368
     e0c:	90 93 0e 04 	sts	0x040E, r25
     e10:	80 93 0d 04 	sts	0x040D, r24
		newPkt.src = opener; //pretend :)
     e14:	80 91 69 03 	lds	r24, 0x0369
     e18:	90 91 6a 03 	lds	r25, 0x036A
     e1c:	90 93 10 04 	sts	0x0410, r25
     e20:	80 93 0f 04 	sts	0x040F, r24
		sprintf(newPkt.dt, openKeyword);
     e24:	8b e6       	ldi	r24, 0x6B	; 107
     e26:	93 e0       	ldi	r25, 0x03	; 3
     e28:	9f 93       	push	r25
     e2a:	8f 93       	push	r24
     e2c:	81 e1       	ldi	r24, 0x11	; 17
     e2e:	94 e0       	ldi	r25, 0x04	; 4
     e30:	9f 93       	push	r25
     e32:	8f 93       	push	r24
     e34:	e3 d0       	rcall	.+454    	; 0xffc <sprintf>
		canSend = true;
     e36:	c1 e0       	ldi	r28, 0x01	; 1
     e38:	c0 93 4a 03 	sts	0x034A, r28
		
		leds_off(LED_RED);
     e3c:	83 e0       	ldi	r24, 0x03	; 3
     e3e:	ad d9       	rcall	.-3238   	; 0x19a <leds_off>
		leds_on(LED_ORANGE);
     e40:	82 e0       	ldi	r24, 0x02	; 2
     e42:	9f d9       	rcall	.-3266   	; 0x182 <leds_on>
		leds_on(LED_GREEN);
     e44:	81 e0       	ldi	r24, 0x01	; 1
     e46:	9d d9       	rcall	.-3270   	; 0x182 <leds_on>
		
		awaitingResponse = true;
     e48:	c0 93 45 03 	sts	0x0345, r28
     e4c:	0f 90       	pop	r0
     e4e:	0f 90       	pop	r0
     e50:	0f 90       	pop	r0
     e52:	0f 90       	pop	r0
	}
}
     e54:	cf 91       	pop	r28
     e56:	08 95       	ret

00000e58 <application_button_released>:

void application_button_released()
{
     e58:	08 95       	ret

00000e5a <__mulsi3>:
     e5a:	db 01       	movw	r26, r22
     e5c:	8f 93       	push	r24
     e5e:	9f 93       	push	r25
     e60:	2d d0       	rcall	.+90     	; 0xebc <__muluhisi3>
     e62:	bf 91       	pop	r27
     e64:	af 91       	pop	r26
     e66:	a2 9f       	mul	r26, r18
     e68:	80 0d       	add	r24, r0
     e6a:	91 1d       	adc	r25, r1
     e6c:	a3 9f       	mul	r26, r19
     e6e:	90 0d       	add	r25, r0
     e70:	b2 9f       	mul	r27, r18
     e72:	90 0d       	add	r25, r0
     e74:	11 24       	eor	r1, r1
     e76:	08 95       	ret

00000e78 <__udivmodsi4>:
     e78:	a1 e2       	ldi	r26, 0x21	; 33
     e7a:	1a 2e       	mov	r1, r26
     e7c:	aa 1b       	sub	r26, r26
     e7e:	bb 1b       	sub	r27, r27
     e80:	fd 01       	movw	r30, r26
     e82:	0d c0       	rjmp	.+26     	; 0xe9e <__udivmodsi4_ep>

00000e84 <__udivmodsi4_loop>:
     e84:	aa 1f       	adc	r26, r26
     e86:	bb 1f       	adc	r27, r27
     e88:	ee 1f       	adc	r30, r30
     e8a:	ff 1f       	adc	r31, r31
     e8c:	a2 17       	cp	r26, r18
     e8e:	b3 07       	cpc	r27, r19
     e90:	e4 07       	cpc	r30, r20
     e92:	f5 07       	cpc	r31, r21
     e94:	20 f0       	brcs	.+8      	; 0xe9e <__udivmodsi4_ep>
     e96:	a2 1b       	sub	r26, r18
     e98:	b3 0b       	sbc	r27, r19
     e9a:	e4 0b       	sbc	r30, r20
     e9c:	f5 0b       	sbc	r31, r21

00000e9e <__udivmodsi4_ep>:
     e9e:	66 1f       	adc	r22, r22
     ea0:	77 1f       	adc	r23, r23
     ea2:	88 1f       	adc	r24, r24
     ea4:	99 1f       	adc	r25, r25
     ea6:	1a 94       	dec	r1
     ea8:	69 f7       	brne	.-38     	; 0xe84 <__udivmodsi4_loop>
     eaa:	60 95       	com	r22
     eac:	70 95       	com	r23
     eae:	80 95       	com	r24
     eb0:	90 95       	com	r25
     eb2:	9b 01       	movw	r18, r22
     eb4:	ac 01       	movw	r20, r24
     eb6:	bd 01       	movw	r22, r26
     eb8:	cf 01       	movw	r24, r30
     eba:	08 95       	ret

00000ebc <__muluhisi3>:
     ebc:	09 d0       	rcall	.+18     	; 0xed0 <__umulhisi3>
     ebe:	a5 9f       	mul	r26, r21
     ec0:	90 0d       	add	r25, r0
     ec2:	b4 9f       	mul	r27, r20
     ec4:	90 0d       	add	r25, r0
     ec6:	a4 9f       	mul	r26, r20
     ec8:	80 0d       	add	r24, r0
     eca:	91 1d       	adc	r25, r1
     ecc:	11 24       	eor	r1, r1
     ece:	08 95       	ret

00000ed0 <__umulhisi3>:
     ed0:	a2 9f       	mul	r26, r18
     ed2:	b0 01       	movw	r22, r0
     ed4:	b3 9f       	mul	r27, r19
     ed6:	c0 01       	movw	r24, r0
     ed8:	a3 9f       	mul	r26, r19
     eda:	70 0d       	add	r23, r0
     edc:	81 1d       	adc	r24, r1
     ede:	11 24       	eor	r1, r1
     ee0:	91 1d       	adc	r25, r1
     ee2:	b2 9f       	mul	r27, r18
     ee4:	70 0d       	add	r23, r0
     ee6:	81 1d       	adc	r24, r1
     ee8:	11 24       	eor	r1, r1
     eea:	91 1d       	adc	r25, r1
     eec:	08 95       	ret

00000eee <atol>:
     eee:	1f 93       	push	r17
     ef0:	fc 01       	movw	r30, r24
     ef2:	99 27       	eor	r25, r25
     ef4:	88 27       	eor	r24, r24
     ef6:	bc 01       	movw	r22, r24
     ef8:	e8 94       	clt
     efa:	11 91       	ld	r17, Z+
     efc:	10 32       	cpi	r17, 0x20	; 32
     efe:	e9 f3       	breq	.-6      	; 0xefa <atol+0xc>
     f00:	19 30       	cpi	r17, 0x09	; 9
     f02:	10 f0       	brcs	.+4      	; 0xf08 <atol+0x1a>
     f04:	1e 30       	cpi	r17, 0x0E	; 14
     f06:	c8 f3       	brcs	.-14     	; 0xefa <atol+0xc>
     f08:	1b 32       	cpi	r17, 0x2B	; 43
     f0a:	49 f0       	breq	.+18     	; 0xf1e <atol+0x30>
     f0c:	1d 32       	cpi	r17, 0x2D	; 45
     f0e:	41 f4       	brne	.+16     	; 0xf20 <atol+0x32>
     f10:	68 94       	set
     f12:	05 c0       	rjmp	.+10     	; 0xf1e <atol+0x30>
     f14:	1b d0       	rcall	.+54     	; 0xf4c <__mulsi_const_10>
     f16:	61 0f       	add	r22, r17
     f18:	71 1d       	adc	r23, r1
     f1a:	81 1d       	adc	r24, r1
     f1c:	91 1d       	adc	r25, r1
     f1e:	11 91       	ld	r17, Z+
     f20:	10 53       	subi	r17, 0x30	; 48
     f22:	1a 30       	cpi	r17, 0x0A	; 10
     f24:	b8 f3       	brcs	.-18     	; 0xf14 <atol+0x26>
     f26:	3e f4       	brtc	.+14     	; 0xf36 <atol+0x48>
     f28:	90 95       	com	r25
     f2a:	80 95       	com	r24
     f2c:	70 95       	com	r23
     f2e:	61 95       	neg	r22
     f30:	7f 4f       	sbci	r23, 0xFF	; 255
     f32:	8f 4f       	sbci	r24, 0xFF	; 255
     f34:	9f 4f       	sbci	r25, 0xFF	; 255
     f36:	1f 91       	pop	r17
     f38:	08 95       	ret

00000f3a <strcmp>:
     f3a:	fb 01       	movw	r30, r22
     f3c:	dc 01       	movw	r26, r24
     f3e:	8d 91       	ld	r24, X+
     f40:	01 90       	ld	r0, Z+
     f42:	80 19       	sub	r24, r0
     f44:	01 10       	cpse	r0, r1
     f46:	d9 f3       	breq	.-10     	; 0xf3e <strcmp+0x4>
     f48:	99 0b       	sbc	r25, r25
     f4a:	08 95       	ret

00000f4c <__mulsi_const_10>:
     f4c:	59 2f       	mov	r21, r25
     f4e:	48 2f       	mov	r20, r24
     f50:	37 2f       	mov	r19, r23
     f52:	26 2f       	mov	r18, r22
     f54:	66 0f       	add	r22, r22
     f56:	77 1f       	adc	r23, r23
     f58:	88 1f       	adc	r24, r24
     f5a:	99 1f       	adc	r25, r25
     f5c:	66 0f       	add	r22, r22
     f5e:	77 1f       	adc	r23, r23
     f60:	88 1f       	adc	r24, r24
     f62:	99 1f       	adc	r25, r25
     f64:	62 0f       	add	r22, r18
     f66:	73 1f       	adc	r23, r19
     f68:	84 1f       	adc	r24, r20
     f6a:	95 1f       	adc	r25, r21
     f6c:	66 0f       	add	r22, r22
     f6e:	77 1f       	adc	r23, r23
     f70:	88 1f       	adc	r24, r24
     f72:	99 1f       	adc	r25, r25
     f74:	08 95       	ret

00000f76 <printf>:
     f76:	cf 93       	push	r28
     f78:	df 93       	push	r29
     f7a:	cd b7       	in	r28, 0x3d	; 61
     f7c:	de b7       	in	r29, 0x3e	; 62
     f7e:	fe 01       	movw	r30, r28
     f80:	35 96       	adiw	r30, 0x05	; 5
     f82:	61 91       	ld	r22, Z+
     f84:	71 91       	ld	r23, Z+
     f86:	af 01       	movw	r20, r30
     f88:	80 91 23 04 	lds	r24, 0x0423
     f8c:	90 91 24 04 	lds	r25, 0x0424
     f90:	63 d0       	rcall	.+198    	; 0x1058 <vfprintf>
     f92:	df 91       	pop	r29
     f94:	cf 91       	pop	r28
     f96:	08 95       	ret

00000f98 <putchar>:
     f98:	60 91 23 04 	lds	r22, 0x0423
     f9c:	70 91 24 04 	lds	r23, 0x0424
     fa0:	5f c2       	rjmp	.+1214   	; 0x1460 <fputc>

00000fa2 <puts>:
     fa2:	0f 93       	push	r16
     fa4:	1f 93       	push	r17
     fa6:	cf 93       	push	r28
     fa8:	df 93       	push	r29
     faa:	e0 91 23 04 	lds	r30, 0x0423
     fae:	f0 91 24 04 	lds	r31, 0x0424
     fb2:	23 81       	ldd	r18, Z+3	; 0x03
     fb4:	21 ff       	sbrs	r18, 1
     fb6:	1b c0       	rjmp	.+54     	; 0xfee <puts+0x4c>
     fb8:	ec 01       	movw	r28, r24
     fba:	00 e0       	ldi	r16, 0x00	; 0
     fbc:	10 e0       	ldi	r17, 0x00	; 0
     fbe:	89 91       	ld	r24, Y+
     fc0:	60 91 23 04 	lds	r22, 0x0423
     fc4:	70 91 24 04 	lds	r23, 0x0424
     fc8:	db 01       	movw	r26, r22
     fca:	18 96       	adiw	r26, 0x08	; 8
     fcc:	ed 91       	ld	r30, X+
     fce:	fc 91       	ld	r31, X
     fd0:	19 97       	sbiw	r26, 0x09	; 9
     fd2:	88 23       	and	r24, r24
     fd4:	31 f0       	breq	.+12     	; 0xfe2 <puts+0x40>
     fd6:	09 95       	icall
     fd8:	89 2b       	or	r24, r25
     fda:	89 f3       	breq	.-30     	; 0xfbe <puts+0x1c>
     fdc:	0f ef       	ldi	r16, 0xFF	; 255
     fde:	1f ef       	ldi	r17, 0xFF	; 255
     fe0:	ee cf       	rjmp	.-36     	; 0xfbe <puts+0x1c>
     fe2:	8a e0       	ldi	r24, 0x0A	; 10
     fe4:	09 95       	icall
     fe6:	89 2b       	or	r24, r25
     fe8:	11 f4       	brne	.+4      	; 0xfee <puts+0x4c>
     fea:	c8 01       	movw	r24, r16
     fec:	02 c0       	rjmp	.+4      	; 0xff2 <puts+0x50>
     fee:	8f ef       	ldi	r24, 0xFF	; 255
     ff0:	9f ef       	ldi	r25, 0xFF	; 255
     ff2:	df 91       	pop	r29
     ff4:	cf 91       	pop	r28
     ff6:	1f 91       	pop	r17
     ff8:	0f 91       	pop	r16
     ffa:	08 95       	ret

00000ffc <sprintf>:
     ffc:	0f 93       	push	r16
     ffe:	1f 93       	push	r17
    1000:	cf 93       	push	r28
    1002:	df 93       	push	r29
    1004:	cd b7       	in	r28, 0x3d	; 61
    1006:	de b7       	in	r29, 0x3e	; 62
    1008:	2e 97       	sbiw	r28, 0x0e	; 14
    100a:	0f b6       	in	r0, 0x3f	; 63
    100c:	f8 94       	cli
    100e:	de bf       	out	0x3e, r29	; 62
    1010:	0f be       	out	0x3f, r0	; 63
    1012:	cd bf       	out	0x3d, r28	; 61
    1014:	0d 89       	ldd	r16, Y+21	; 0x15
    1016:	1e 89       	ldd	r17, Y+22	; 0x16
    1018:	86 e0       	ldi	r24, 0x06	; 6
    101a:	8c 83       	std	Y+4, r24	; 0x04
    101c:	1a 83       	std	Y+2, r17	; 0x02
    101e:	09 83       	std	Y+1, r16	; 0x01
    1020:	8f ef       	ldi	r24, 0xFF	; 255
    1022:	9f e7       	ldi	r25, 0x7F	; 127
    1024:	9e 83       	std	Y+6, r25	; 0x06
    1026:	8d 83       	std	Y+5, r24	; 0x05
    1028:	ae 01       	movw	r20, r28
    102a:	47 5e       	subi	r20, 0xE7	; 231
    102c:	5f 4f       	sbci	r21, 0xFF	; 255
    102e:	6f 89       	ldd	r22, Y+23	; 0x17
    1030:	78 8d       	ldd	r23, Y+24	; 0x18
    1032:	ce 01       	movw	r24, r28
    1034:	01 96       	adiw	r24, 0x01	; 1
    1036:	10 d0       	rcall	.+32     	; 0x1058 <vfprintf>
    1038:	ef 81       	ldd	r30, Y+7	; 0x07
    103a:	f8 85       	ldd	r31, Y+8	; 0x08
    103c:	e0 0f       	add	r30, r16
    103e:	f1 1f       	adc	r31, r17
    1040:	10 82       	st	Z, r1
    1042:	2e 96       	adiw	r28, 0x0e	; 14
    1044:	0f b6       	in	r0, 0x3f	; 63
    1046:	f8 94       	cli
    1048:	de bf       	out	0x3e, r29	; 62
    104a:	0f be       	out	0x3f, r0	; 63
    104c:	cd bf       	out	0x3d, r28	; 61
    104e:	df 91       	pop	r29
    1050:	cf 91       	pop	r28
    1052:	1f 91       	pop	r17
    1054:	0f 91       	pop	r16
    1056:	08 95       	ret

00001058 <vfprintf>:
    1058:	2f 92       	push	r2
    105a:	3f 92       	push	r3
    105c:	4f 92       	push	r4
    105e:	5f 92       	push	r5
    1060:	6f 92       	push	r6
    1062:	7f 92       	push	r7
    1064:	8f 92       	push	r8
    1066:	9f 92       	push	r9
    1068:	af 92       	push	r10
    106a:	bf 92       	push	r11
    106c:	cf 92       	push	r12
    106e:	df 92       	push	r13
    1070:	ef 92       	push	r14
    1072:	ff 92       	push	r15
    1074:	0f 93       	push	r16
    1076:	1f 93       	push	r17
    1078:	cf 93       	push	r28
    107a:	df 93       	push	r29
    107c:	cd b7       	in	r28, 0x3d	; 61
    107e:	de b7       	in	r29, 0x3e	; 62
    1080:	2c 97       	sbiw	r28, 0x0c	; 12
    1082:	0f b6       	in	r0, 0x3f	; 63
    1084:	f8 94       	cli
    1086:	de bf       	out	0x3e, r29	; 62
    1088:	0f be       	out	0x3f, r0	; 63
    108a:	cd bf       	out	0x3d, r28	; 61
    108c:	7c 01       	movw	r14, r24
    108e:	6b 01       	movw	r12, r22
    1090:	8a 01       	movw	r16, r20
    1092:	fc 01       	movw	r30, r24
    1094:	17 82       	std	Z+7, r1	; 0x07
    1096:	16 82       	std	Z+6, r1	; 0x06
    1098:	83 81       	ldd	r24, Z+3	; 0x03
    109a:	81 ff       	sbrs	r24, 1
    109c:	b0 c1       	rjmp	.+864    	; 0x13fe <vfprintf+0x3a6>
    109e:	ce 01       	movw	r24, r28
    10a0:	01 96       	adiw	r24, 0x01	; 1
    10a2:	4c 01       	movw	r8, r24
    10a4:	f7 01       	movw	r30, r14
    10a6:	93 81       	ldd	r25, Z+3	; 0x03
    10a8:	f6 01       	movw	r30, r12
    10aa:	93 fd       	sbrc	r25, 3
    10ac:	85 91       	lpm	r24, Z+
    10ae:	93 ff       	sbrs	r25, 3
    10b0:	81 91       	ld	r24, Z+
    10b2:	6f 01       	movw	r12, r30
    10b4:	88 23       	and	r24, r24
    10b6:	09 f4       	brne	.+2      	; 0x10ba <vfprintf+0x62>
    10b8:	9e c1       	rjmp	.+828    	; 0x13f6 <vfprintf+0x39e>
    10ba:	85 32       	cpi	r24, 0x25	; 37
    10bc:	39 f4       	brne	.+14     	; 0x10cc <vfprintf+0x74>
    10be:	93 fd       	sbrc	r25, 3
    10c0:	85 91       	lpm	r24, Z+
    10c2:	93 ff       	sbrs	r25, 3
    10c4:	81 91       	ld	r24, Z+
    10c6:	6f 01       	movw	r12, r30
    10c8:	85 32       	cpi	r24, 0x25	; 37
    10ca:	21 f4       	brne	.+8      	; 0x10d4 <vfprintf+0x7c>
    10cc:	b7 01       	movw	r22, r14
    10ce:	90 e0       	ldi	r25, 0x00	; 0
    10d0:	c7 d1       	rcall	.+910    	; 0x1460 <fputc>
    10d2:	e8 cf       	rjmp	.-48     	; 0x10a4 <vfprintf+0x4c>
    10d4:	51 2c       	mov	r5, r1
    10d6:	31 2c       	mov	r3, r1
    10d8:	20 e0       	ldi	r18, 0x00	; 0
    10da:	20 32       	cpi	r18, 0x20	; 32
    10dc:	a0 f4       	brcc	.+40     	; 0x1106 <vfprintf+0xae>
    10de:	8b 32       	cpi	r24, 0x2B	; 43
    10e0:	69 f0       	breq	.+26     	; 0x10fc <vfprintf+0xa4>
    10e2:	30 f4       	brcc	.+12     	; 0x10f0 <vfprintf+0x98>
    10e4:	80 32       	cpi	r24, 0x20	; 32
    10e6:	59 f0       	breq	.+22     	; 0x10fe <vfprintf+0xa6>
    10e8:	83 32       	cpi	r24, 0x23	; 35
    10ea:	69 f4       	brne	.+26     	; 0x1106 <vfprintf+0xae>
    10ec:	20 61       	ori	r18, 0x10	; 16
    10ee:	2c c0       	rjmp	.+88     	; 0x1148 <vfprintf+0xf0>
    10f0:	8d 32       	cpi	r24, 0x2D	; 45
    10f2:	39 f0       	breq	.+14     	; 0x1102 <vfprintf+0xaa>
    10f4:	80 33       	cpi	r24, 0x30	; 48
    10f6:	39 f4       	brne	.+14     	; 0x1106 <vfprintf+0xae>
    10f8:	21 60       	ori	r18, 0x01	; 1
    10fa:	26 c0       	rjmp	.+76     	; 0x1148 <vfprintf+0xf0>
    10fc:	22 60       	ori	r18, 0x02	; 2
    10fe:	24 60       	ori	r18, 0x04	; 4
    1100:	23 c0       	rjmp	.+70     	; 0x1148 <vfprintf+0xf0>
    1102:	28 60       	ori	r18, 0x08	; 8
    1104:	21 c0       	rjmp	.+66     	; 0x1148 <vfprintf+0xf0>
    1106:	27 fd       	sbrc	r18, 7
    1108:	27 c0       	rjmp	.+78     	; 0x1158 <vfprintf+0x100>
    110a:	30 ed       	ldi	r19, 0xD0	; 208
    110c:	38 0f       	add	r19, r24
    110e:	3a 30       	cpi	r19, 0x0A	; 10
    1110:	78 f4       	brcc	.+30     	; 0x1130 <vfprintf+0xd8>
    1112:	26 ff       	sbrs	r18, 6
    1114:	06 c0       	rjmp	.+12     	; 0x1122 <vfprintf+0xca>
    1116:	fa e0       	ldi	r31, 0x0A	; 10
    1118:	5f 9e       	mul	r5, r31
    111a:	30 0d       	add	r19, r0
    111c:	11 24       	eor	r1, r1
    111e:	53 2e       	mov	r5, r19
    1120:	13 c0       	rjmp	.+38     	; 0x1148 <vfprintf+0xf0>
    1122:	8a e0       	ldi	r24, 0x0A	; 10
    1124:	38 9e       	mul	r3, r24
    1126:	30 0d       	add	r19, r0
    1128:	11 24       	eor	r1, r1
    112a:	33 2e       	mov	r3, r19
    112c:	20 62       	ori	r18, 0x20	; 32
    112e:	0c c0       	rjmp	.+24     	; 0x1148 <vfprintf+0xf0>
    1130:	8e 32       	cpi	r24, 0x2E	; 46
    1132:	21 f4       	brne	.+8      	; 0x113c <vfprintf+0xe4>
    1134:	26 fd       	sbrc	r18, 6
    1136:	5f c1       	rjmp	.+702    	; 0x13f6 <vfprintf+0x39e>
    1138:	20 64       	ori	r18, 0x40	; 64
    113a:	06 c0       	rjmp	.+12     	; 0x1148 <vfprintf+0xf0>
    113c:	8c 36       	cpi	r24, 0x6C	; 108
    113e:	11 f4       	brne	.+4      	; 0x1144 <vfprintf+0xec>
    1140:	20 68       	ori	r18, 0x80	; 128
    1142:	02 c0       	rjmp	.+4      	; 0x1148 <vfprintf+0xf0>
    1144:	88 36       	cpi	r24, 0x68	; 104
    1146:	41 f4       	brne	.+16     	; 0x1158 <vfprintf+0x100>
    1148:	f6 01       	movw	r30, r12
    114a:	93 fd       	sbrc	r25, 3
    114c:	85 91       	lpm	r24, Z+
    114e:	93 ff       	sbrs	r25, 3
    1150:	81 91       	ld	r24, Z+
    1152:	6f 01       	movw	r12, r30
    1154:	81 11       	cpse	r24, r1
    1156:	c1 cf       	rjmp	.-126    	; 0x10da <vfprintf+0x82>
    1158:	98 2f       	mov	r25, r24
    115a:	9f 7d       	andi	r25, 0xDF	; 223
    115c:	95 54       	subi	r25, 0x45	; 69
    115e:	93 30       	cpi	r25, 0x03	; 3
    1160:	28 f4       	brcc	.+10     	; 0x116c <vfprintf+0x114>
    1162:	0c 5f       	subi	r16, 0xFC	; 252
    1164:	1f 4f       	sbci	r17, 0xFF	; 255
    1166:	ff e3       	ldi	r31, 0x3F	; 63
    1168:	f9 83       	std	Y+1, r31	; 0x01
    116a:	0d c0       	rjmp	.+26     	; 0x1186 <vfprintf+0x12e>
    116c:	83 36       	cpi	r24, 0x63	; 99
    116e:	31 f0       	breq	.+12     	; 0x117c <vfprintf+0x124>
    1170:	83 37       	cpi	r24, 0x73	; 115
    1172:	71 f0       	breq	.+28     	; 0x1190 <vfprintf+0x138>
    1174:	83 35       	cpi	r24, 0x53	; 83
    1176:	09 f0       	breq	.+2      	; 0x117a <vfprintf+0x122>
    1178:	57 c0       	rjmp	.+174    	; 0x1228 <vfprintf+0x1d0>
    117a:	21 c0       	rjmp	.+66     	; 0x11be <vfprintf+0x166>
    117c:	f8 01       	movw	r30, r16
    117e:	80 81       	ld	r24, Z
    1180:	89 83       	std	Y+1, r24	; 0x01
    1182:	0e 5f       	subi	r16, 0xFE	; 254
    1184:	1f 4f       	sbci	r17, 0xFF	; 255
    1186:	44 24       	eor	r4, r4
    1188:	43 94       	inc	r4
    118a:	51 2c       	mov	r5, r1
    118c:	54 01       	movw	r10, r8
    118e:	14 c0       	rjmp	.+40     	; 0x11b8 <vfprintf+0x160>
    1190:	38 01       	movw	r6, r16
    1192:	f2 e0       	ldi	r31, 0x02	; 2
    1194:	6f 0e       	add	r6, r31
    1196:	71 1c       	adc	r7, r1
    1198:	f8 01       	movw	r30, r16
    119a:	a0 80       	ld	r10, Z
    119c:	b1 80       	ldd	r11, Z+1	; 0x01
    119e:	26 ff       	sbrs	r18, 6
    11a0:	03 c0       	rjmp	.+6      	; 0x11a8 <vfprintf+0x150>
    11a2:	65 2d       	mov	r22, r5
    11a4:	70 e0       	ldi	r23, 0x00	; 0
    11a6:	02 c0       	rjmp	.+4      	; 0x11ac <vfprintf+0x154>
    11a8:	6f ef       	ldi	r22, 0xFF	; 255
    11aa:	7f ef       	ldi	r23, 0xFF	; 255
    11ac:	c5 01       	movw	r24, r10
    11ae:	2c 87       	std	Y+12, r18	; 0x0c
    11b0:	4c d1       	rcall	.+664    	; 0x144a <strnlen>
    11b2:	2c 01       	movw	r4, r24
    11b4:	83 01       	movw	r16, r6
    11b6:	2c 85       	ldd	r18, Y+12	; 0x0c
    11b8:	2f 77       	andi	r18, 0x7F	; 127
    11ba:	22 2e       	mov	r2, r18
    11bc:	16 c0       	rjmp	.+44     	; 0x11ea <vfprintf+0x192>
    11be:	38 01       	movw	r6, r16
    11c0:	f2 e0       	ldi	r31, 0x02	; 2
    11c2:	6f 0e       	add	r6, r31
    11c4:	71 1c       	adc	r7, r1
    11c6:	f8 01       	movw	r30, r16
    11c8:	a0 80       	ld	r10, Z
    11ca:	b1 80       	ldd	r11, Z+1	; 0x01
    11cc:	26 ff       	sbrs	r18, 6
    11ce:	03 c0       	rjmp	.+6      	; 0x11d6 <vfprintf+0x17e>
    11d0:	65 2d       	mov	r22, r5
    11d2:	70 e0       	ldi	r23, 0x00	; 0
    11d4:	02 c0       	rjmp	.+4      	; 0x11da <vfprintf+0x182>
    11d6:	6f ef       	ldi	r22, 0xFF	; 255
    11d8:	7f ef       	ldi	r23, 0xFF	; 255
    11da:	c5 01       	movw	r24, r10
    11dc:	2c 87       	std	Y+12, r18	; 0x0c
    11de:	2a d1       	rcall	.+596    	; 0x1434 <strnlen_P>
    11e0:	2c 01       	movw	r4, r24
    11e2:	2c 85       	ldd	r18, Y+12	; 0x0c
    11e4:	20 68       	ori	r18, 0x80	; 128
    11e6:	22 2e       	mov	r2, r18
    11e8:	83 01       	movw	r16, r6
    11ea:	23 fc       	sbrc	r2, 3
    11ec:	19 c0       	rjmp	.+50     	; 0x1220 <vfprintf+0x1c8>
    11ee:	83 2d       	mov	r24, r3
    11f0:	90 e0       	ldi	r25, 0x00	; 0
    11f2:	48 16       	cp	r4, r24
    11f4:	59 06       	cpc	r5, r25
    11f6:	a0 f4       	brcc	.+40     	; 0x1220 <vfprintf+0x1c8>
    11f8:	b7 01       	movw	r22, r14
    11fa:	80 e2       	ldi	r24, 0x20	; 32
    11fc:	90 e0       	ldi	r25, 0x00	; 0
    11fe:	30 d1       	rcall	.+608    	; 0x1460 <fputc>
    1200:	3a 94       	dec	r3
    1202:	f5 cf       	rjmp	.-22     	; 0x11ee <vfprintf+0x196>
    1204:	f5 01       	movw	r30, r10
    1206:	27 fc       	sbrc	r2, 7
    1208:	85 91       	lpm	r24, Z+
    120a:	27 fe       	sbrs	r2, 7
    120c:	81 91       	ld	r24, Z+
    120e:	5f 01       	movw	r10, r30
    1210:	b7 01       	movw	r22, r14
    1212:	90 e0       	ldi	r25, 0x00	; 0
    1214:	25 d1       	rcall	.+586    	; 0x1460 <fputc>
    1216:	31 10       	cpse	r3, r1
    1218:	3a 94       	dec	r3
    121a:	f1 e0       	ldi	r31, 0x01	; 1
    121c:	4f 1a       	sub	r4, r31
    121e:	51 08       	sbc	r5, r1
    1220:	41 14       	cp	r4, r1
    1222:	51 04       	cpc	r5, r1
    1224:	79 f7       	brne	.-34     	; 0x1204 <vfprintf+0x1ac>
    1226:	de c0       	rjmp	.+444    	; 0x13e4 <vfprintf+0x38c>
    1228:	84 36       	cpi	r24, 0x64	; 100
    122a:	11 f0       	breq	.+4      	; 0x1230 <vfprintf+0x1d8>
    122c:	89 36       	cpi	r24, 0x69	; 105
    122e:	31 f5       	brne	.+76     	; 0x127c <vfprintf+0x224>
    1230:	f8 01       	movw	r30, r16
    1232:	27 ff       	sbrs	r18, 7
    1234:	07 c0       	rjmp	.+14     	; 0x1244 <vfprintf+0x1ec>
    1236:	60 81       	ld	r22, Z
    1238:	71 81       	ldd	r23, Z+1	; 0x01
    123a:	82 81       	ldd	r24, Z+2	; 0x02
    123c:	93 81       	ldd	r25, Z+3	; 0x03
    123e:	0c 5f       	subi	r16, 0xFC	; 252
    1240:	1f 4f       	sbci	r17, 0xFF	; 255
    1242:	08 c0       	rjmp	.+16     	; 0x1254 <vfprintf+0x1fc>
    1244:	60 81       	ld	r22, Z
    1246:	71 81       	ldd	r23, Z+1	; 0x01
    1248:	88 27       	eor	r24, r24
    124a:	77 fd       	sbrc	r23, 7
    124c:	80 95       	com	r24
    124e:	98 2f       	mov	r25, r24
    1250:	0e 5f       	subi	r16, 0xFE	; 254
    1252:	1f 4f       	sbci	r17, 0xFF	; 255
    1254:	2f 76       	andi	r18, 0x6F	; 111
    1256:	b2 2e       	mov	r11, r18
    1258:	97 ff       	sbrs	r25, 7
    125a:	09 c0       	rjmp	.+18     	; 0x126e <vfprintf+0x216>
    125c:	90 95       	com	r25
    125e:	80 95       	com	r24
    1260:	70 95       	com	r23
    1262:	61 95       	neg	r22
    1264:	7f 4f       	sbci	r23, 0xFF	; 255
    1266:	8f 4f       	sbci	r24, 0xFF	; 255
    1268:	9f 4f       	sbci	r25, 0xFF	; 255
    126a:	20 68       	ori	r18, 0x80	; 128
    126c:	b2 2e       	mov	r11, r18
    126e:	2a e0       	ldi	r18, 0x0A	; 10
    1270:	30 e0       	ldi	r19, 0x00	; 0
    1272:	a4 01       	movw	r20, r8
    1274:	27 d1       	rcall	.+590    	; 0x14c4 <__ultoa_invert>
    1276:	a8 2e       	mov	r10, r24
    1278:	a8 18       	sub	r10, r8
    127a:	43 c0       	rjmp	.+134    	; 0x1302 <vfprintf+0x2aa>
    127c:	85 37       	cpi	r24, 0x75	; 117
    127e:	29 f4       	brne	.+10     	; 0x128a <vfprintf+0x232>
    1280:	2f 7e       	andi	r18, 0xEF	; 239
    1282:	b2 2e       	mov	r11, r18
    1284:	2a e0       	ldi	r18, 0x0A	; 10
    1286:	30 e0       	ldi	r19, 0x00	; 0
    1288:	25 c0       	rjmp	.+74     	; 0x12d4 <vfprintf+0x27c>
    128a:	f2 2f       	mov	r31, r18
    128c:	f9 7f       	andi	r31, 0xF9	; 249
    128e:	bf 2e       	mov	r11, r31
    1290:	8f 36       	cpi	r24, 0x6F	; 111
    1292:	c1 f0       	breq	.+48     	; 0x12c4 <vfprintf+0x26c>
    1294:	18 f4       	brcc	.+6      	; 0x129c <vfprintf+0x244>
    1296:	88 35       	cpi	r24, 0x58	; 88
    1298:	79 f0       	breq	.+30     	; 0x12b8 <vfprintf+0x260>
    129a:	ad c0       	rjmp	.+346    	; 0x13f6 <vfprintf+0x39e>
    129c:	80 37       	cpi	r24, 0x70	; 112
    129e:	19 f0       	breq	.+6      	; 0x12a6 <vfprintf+0x24e>
    12a0:	88 37       	cpi	r24, 0x78	; 120
    12a2:	21 f0       	breq	.+8      	; 0x12ac <vfprintf+0x254>
    12a4:	a8 c0       	rjmp	.+336    	; 0x13f6 <vfprintf+0x39e>
    12a6:	2f 2f       	mov	r18, r31
    12a8:	20 61       	ori	r18, 0x10	; 16
    12aa:	b2 2e       	mov	r11, r18
    12ac:	b4 fe       	sbrs	r11, 4
    12ae:	0d c0       	rjmp	.+26     	; 0x12ca <vfprintf+0x272>
    12b0:	8b 2d       	mov	r24, r11
    12b2:	84 60       	ori	r24, 0x04	; 4
    12b4:	b8 2e       	mov	r11, r24
    12b6:	09 c0       	rjmp	.+18     	; 0x12ca <vfprintf+0x272>
    12b8:	24 ff       	sbrs	r18, 4
    12ba:	0a c0       	rjmp	.+20     	; 0x12d0 <vfprintf+0x278>
    12bc:	9f 2f       	mov	r25, r31
    12be:	96 60       	ori	r25, 0x06	; 6
    12c0:	b9 2e       	mov	r11, r25
    12c2:	06 c0       	rjmp	.+12     	; 0x12d0 <vfprintf+0x278>
    12c4:	28 e0       	ldi	r18, 0x08	; 8
    12c6:	30 e0       	ldi	r19, 0x00	; 0
    12c8:	05 c0       	rjmp	.+10     	; 0x12d4 <vfprintf+0x27c>
    12ca:	20 e1       	ldi	r18, 0x10	; 16
    12cc:	30 e0       	ldi	r19, 0x00	; 0
    12ce:	02 c0       	rjmp	.+4      	; 0x12d4 <vfprintf+0x27c>
    12d0:	20 e1       	ldi	r18, 0x10	; 16
    12d2:	32 e0       	ldi	r19, 0x02	; 2
    12d4:	f8 01       	movw	r30, r16
    12d6:	b7 fe       	sbrs	r11, 7
    12d8:	07 c0       	rjmp	.+14     	; 0x12e8 <vfprintf+0x290>
    12da:	60 81       	ld	r22, Z
    12dc:	71 81       	ldd	r23, Z+1	; 0x01
    12de:	82 81       	ldd	r24, Z+2	; 0x02
    12e0:	93 81       	ldd	r25, Z+3	; 0x03
    12e2:	0c 5f       	subi	r16, 0xFC	; 252
    12e4:	1f 4f       	sbci	r17, 0xFF	; 255
    12e6:	06 c0       	rjmp	.+12     	; 0x12f4 <vfprintf+0x29c>
    12e8:	60 81       	ld	r22, Z
    12ea:	71 81       	ldd	r23, Z+1	; 0x01
    12ec:	80 e0       	ldi	r24, 0x00	; 0
    12ee:	90 e0       	ldi	r25, 0x00	; 0
    12f0:	0e 5f       	subi	r16, 0xFE	; 254
    12f2:	1f 4f       	sbci	r17, 0xFF	; 255
    12f4:	a4 01       	movw	r20, r8
    12f6:	e6 d0       	rcall	.+460    	; 0x14c4 <__ultoa_invert>
    12f8:	a8 2e       	mov	r10, r24
    12fa:	a8 18       	sub	r10, r8
    12fc:	fb 2d       	mov	r31, r11
    12fe:	ff 77       	andi	r31, 0x7F	; 127
    1300:	bf 2e       	mov	r11, r31
    1302:	b6 fe       	sbrs	r11, 6
    1304:	0b c0       	rjmp	.+22     	; 0x131c <vfprintf+0x2c4>
    1306:	2b 2d       	mov	r18, r11
    1308:	2e 7f       	andi	r18, 0xFE	; 254
    130a:	a5 14       	cp	r10, r5
    130c:	50 f4       	brcc	.+20     	; 0x1322 <vfprintf+0x2ca>
    130e:	b4 fe       	sbrs	r11, 4
    1310:	0a c0       	rjmp	.+20     	; 0x1326 <vfprintf+0x2ce>
    1312:	b2 fc       	sbrc	r11, 2
    1314:	08 c0       	rjmp	.+16     	; 0x1326 <vfprintf+0x2ce>
    1316:	2b 2d       	mov	r18, r11
    1318:	2e 7e       	andi	r18, 0xEE	; 238
    131a:	05 c0       	rjmp	.+10     	; 0x1326 <vfprintf+0x2ce>
    131c:	7a 2c       	mov	r7, r10
    131e:	2b 2d       	mov	r18, r11
    1320:	03 c0       	rjmp	.+6      	; 0x1328 <vfprintf+0x2d0>
    1322:	7a 2c       	mov	r7, r10
    1324:	01 c0       	rjmp	.+2      	; 0x1328 <vfprintf+0x2d0>
    1326:	75 2c       	mov	r7, r5
    1328:	24 ff       	sbrs	r18, 4
    132a:	0d c0       	rjmp	.+26     	; 0x1346 <vfprintf+0x2ee>
    132c:	fe 01       	movw	r30, r28
    132e:	ea 0d       	add	r30, r10
    1330:	f1 1d       	adc	r31, r1
    1332:	80 81       	ld	r24, Z
    1334:	80 33       	cpi	r24, 0x30	; 48
    1336:	11 f4       	brne	.+4      	; 0x133c <vfprintf+0x2e4>
    1338:	29 7e       	andi	r18, 0xE9	; 233
    133a:	09 c0       	rjmp	.+18     	; 0x134e <vfprintf+0x2f6>
    133c:	22 ff       	sbrs	r18, 2
    133e:	06 c0       	rjmp	.+12     	; 0x134c <vfprintf+0x2f4>
    1340:	73 94       	inc	r7
    1342:	73 94       	inc	r7
    1344:	04 c0       	rjmp	.+8      	; 0x134e <vfprintf+0x2f6>
    1346:	82 2f       	mov	r24, r18
    1348:	86 78       	andi	r24, 0x86	; 134
    134a:	09 f0       	breq	.+2      	; 0x134e <vfprintf+0x2f6>
    134c:	73 94       	inc	r7
    134e:	23 fd       	sbrc	r18, 3
    1350:	12 c0       	rjmp	.+36     	; 0x1376 <vfprintf+0x31e>
    1352:	20 ff       	sbrs	r18, 0
    1354:	06 c0       	rjmp	.+12     	; 0x1362 <vfprintf+0x30a>
    1356:	5a 2c       	mov	r5, r10
    1358:	73 14       	cp	r7, r3
    135a:	18 f4       	brcc	.+6      	; 0x1362 <vfprintf+0x30a>
    135c:	53 0c       	add	r5, r3
    135e:	57 18       	sub	r5, r7
    1360:	73 2c       	mov	r7, r3
    1362:	73 14       	cp	r7, r3
    1364:	60 f4       	brcc	.+24     	; 0x137e <vfprintf+0x326>
    1366:	b7 01       	movw	r22, r14
    1368:	80 e2       	ldi	r24, 0x20	; 32
    136a:	90 e0       	ldi	r25, 0x00	; 0
    136c:	2c 87       	std	Y+12, r18	; 0x0c
    136e:	78 d0       	rcall	.+240    	; 0x1460 <fputc>
    1370:	73 94       	inc	r7
    1372:	2c 85       	ldd	r18, Y+12	; 0x0c
    1374:	f6 cf       	rjmp	.-20     	; 0x1362 <vfprintf+0x30a>
    1376:	73 14       	cp	r7, r3
    1378:	10 f4       	brcc	.+4      	; 0x137e <vfprintf+0x326>
    137a:	37 18       	sub	r3, r7
    137c:	01 c0       	rjmp	.+2      	; 0x1380 <vfprintf+0x328>
    137e:	31 2c       	mov	r3, r1
    1380:	24 ff       	sbrs	r18, 4
    1382:	11 c0       	rjmp	.+34     	; 0x13a6 <vfprintf+0x34e>
    1384:	b7 01       	movw	r22, r14
    1386:	80 e3       	ldi	r24, 0x30	; 48
    1388:	90 e0       	ldi	r25, 0x00	; 0
    138a:	2c 87       	std	Y+12, r18	; 0x0c
    138c:	69 d0       	rcall	.+210    	; 0x1460 <fputc>
    138e:	2c 85       	ldd	r18, Y+12	; 0x0c
    1390:	22 ff       	sbrs	r18, 2
    1392:	16 c0       	rjmp	.+44     	; 0x13c0 <vfprintf+0x368>
    1394:	21 ff       	sbrs	r18, 1
    1396:	03 c0       	rjmp	.+6      	; 0x139e <vfprintf+0x346>
    1398:	88 e5       	ldi	r24, 0x58	; 88
    139a:	90 e0       	ldi	r25, 0x00	; 0
    139c:	02 c0       	rjmp	.+4      	; 0x13a2 <vfprintf+0x34a>
    139e:	88 e7       	ldi	r24, 0x78	; 120
    13a0:	90 e0       	ldi	r25, 0x00	; 0
    13a2:	b7 01       	movw	r22, r14
    13a4:	0c c0       	rjmp	.+24     	; 0x13be <vfprintf+0x366>
    13a6:	82 2f       	mov	r24, r18
    13a8:	86 78       	andi	r24, 0x86	; 134
    13aa:	51 f0       	breq	.+20     	; 0x13c0 <vfprintf+0x368>
    13ac:	21 fd       	sbrc	r18, 1
    13ae:	02 c0       	rjmp	.+4      	; 0x13b4 <vfprintf+0x35c>
    13b0:	80 e2       	ldi	r24, 0x20	; 32
    13b2:	01 c0       	rjmp	.+2      	; 0x13b6 <vfprintf+0x35e>
    13b4:	8b e2       	ldi	r24, 0x2B	; 43
    13b6:	27 fd       	sbrc	r18, 7
    13b8:	8d e2       	ldi	r24, 0x2D	; 45
    13ba:	b7 01       	movw	r22, r14
    13bc:	90 e0       	ldi	r25, 0x00	; 0
    13be:	50 d0       	rcall	.+160    	; 0x1460 <fputc>
    13c0:	a5 14       	cp	r10, r5
    13c2:	30 f4       	brcc	.+12     	; 0x13d0 <vfprintf+0x378>
    13c4:	b7 01       	movw	r22, r14
    13c6:	80 e3       	ldi	r24, 0x30	; 48
    13c8:	90 e0       	ldi	r25, 0x00	; 0
    13ca:	4a d0       	rcall	.+148    	; 0x1460 <fputc>
    13cc:	5a 94       	dec	r5
    13ce:	f8 cf       	rjmp	.-16     	; 0x13c0 <vfprintf+0x368>
    13d0:	aa 94       	dec	r10
    13d2:	f4 01       	movw	r30, r8
    13d4:	ea 0d       	add	r30, r10
    13d6:	f1 1d       	adc	r31, r1
    13d8:	80 81       	ld	r24, Z
    13da:	b7 01       	movw	r22, r14
    13dc:	90 e0       	ldi	r25, 0x00	; 0
    13de:	40 d0       	rcall	.+128    	; 0x1460 <fputc>
    13e0:	a1 10       	cpse	r10, r1
    13e2:	f6 cf       	rjmp	.-20     	; 0x13d0 <vfprintf+0x378>
    13e4:	33 20       	and	r3, r3
    13e6:	09 f4       	brne	.+2      	; 0x13ea <vfprintf+0x392>
    13e8:	5d ce       	rjmp	.-838    	; 0x10a4 <vfprintf+0x4c>
    13ea:	b7 01       	movw	r22, r14
    13ec:	80 e2       	ldi	r24, 0x20	; 32
    13ee:	90 e0       	ldi	r25, 0x00	; 0
    13f0:	37 d0       	rcall	.+110    	; 0x1460 <fputc>
    13f2:	3a 94       	dec	r3
    13f4:	f7 cf       	rjmp	.-18     	; 0x13e4 <vfprintf+0x38c>
    13f6:	f7 01       	movw	r30, r14
    13f8:	86 81       	ldd	r24, Z+6	; 0x06
    13fa:	97 81       	ldd	r25, Z+7	; 0x07
    13fc:	02 c0       	rjmp	.+4      	; 0x1402 <vfprintf+0x3aa>
    13fe:	8f ef       	ldi	r24, 0xFF	; 255
    1400:	9f ef       	ldi	r25, 0xFF	; 255
    1402:	2c 96       	adiw	r28, 0x0c	; 12
    1404:	0f b6       	in	r0, 0x3f	; 63
    1406:	f8 94       	cli
    1408:	de bf       	out	0x3e, r29	; 62
    140a:	0f be       	out	0x3f, r0	; 63
    140c:	cd bf       	out	0x3d, r28	; 61
    140e:	df 91       	pop	r29
    1410:	cf 91       	pop	r28
    1412:	1f 91       	pop	r17
    1414:	0f 91       	pop	r16
    1416:	ff 90       	pop	r15
    1418:	ef 90       	pop	r14
    141a:	df 90       	pop	r13
    141c:	cf 90       	pop	r12
    141e:	bf 90       	pop	r11
    1420:	af 90       	pop	r10
    1422:	9f 90       	pop	r9
    1424:	8f 90       	pop	r8
    1426:	7f 90       	pop	r7
    1428:	6f 90       	pop	r6
    142a:	5f 90       	pop	r5
    142c:	4f 90       	pop	r4
    142e:	3f 90       	pop	r3
    1430:	2f 90       	pop	r2
    1432:	08 95       	ret

00001434 <strnlen_P>:
    1434:	fc 01       	movw	r30, r24
    1436:	05 90       	lpm	r0, Z+
    1438:	61 50       	subi	r22, 0x01	; 1
    143a:	70 40       	sbci	r23, 0x00	; 0
    143c:	01 10       	cpse	r0, r1
    143e:	d8 f7       	brcc	.-10     	; 0x1436 <strnlen_P+0x2>
    1440:	80 95       	com	r24
    1442:	90 95       	com	r25
    1444:	8e 0f       	add	r24, r30
    1446:	9f 1f       	adc	r25, r31
    1448:	08 95       	ret

0000144a <strnlen>:
    144a:	fc 01       	movw	r30, r24
    144c:	61 50       	subi	r22, 0x01	; 1
    144e:	70 40       	sbci	r23, 0x00	; 0
    1450:	01 90       	ld	r0, Z+
    1452:	01 10       	cpse	r0, r1
    1454:	d8 f7       	brcc	.-10     	; 0x144c <strnlen+0x2>
    1456:	80 95       	com	r24
    1458:	90 95       	com	r25
    145a:	8e 0f       	add	r24, r30
    145c:	9f 1f       	adc	r25, r31
    145e:	08 95       	ret

00001460 <fputc>:
    1460:	0f 93       	push	r16
    1462:	1f 93       	push	r17
    1464:	cf 93       	push	r28
    1466:	df 93       	push	r29
    1468:	18 2f       	mov	r17, r24
    146a:	09 2f       	mov	r16, r25
    146c:	eb 01       	movw	r28, r22
    146e:	8b 81       	ldd	r24, Y+3	; 0x03
    1470:	81 fd       	sbrc	r24, 1
    1472:	03 c0       	rjmp	.+6      	; 0x147a <fputc+0x1a>
    1474:	8f ef       	ldi	r24, 0xFF	; 255
    1476:	9f ef       	ldi	r25, 0xFF	; 255
    1478:	20 c0       	rjmp	.+64     	; 0x14ba <fputc+0x5a>
    147a:	82 ff       	sbrs	r24, 2
    147c:	10 c0       	rjmp	.+32     	; 0x149e <fputc+0x3e>
    147e:	4e 81       	ldd	r20, Y+6	; 0x06
    1480:	5f 81       	ldd	r21, Y+7	; 0x07
    1482:	2c 81       	ldd	r18, Y+4	; 0x04
    1484:	3d 81       	ldd	r19, Y+5	; 0x05
    1486:	42 17       	cp	r20, r18
    1488:	53 07       	cpc	r21, r19
    148a:	7c f4       	brge	.+30     	; 0x14aa <fputc+0x4a>
    148c:	e8 81       	ld	r30, Y
    148e:	f9 81       	ldd	r31, Y+1	; 0x01
    1490:	9f 01       	movw	r18, r30
    1492:	2f 5f       	subi	r18, 0xFF	; 255
    1494:	3f 4f       	sbci	r19, 0xFF	; 255
    1496:	39 83       	std	Y+1, r19	; 0x01
    1498:	28 83       	st	Y, r18
    149a:	10 83       	st	Z, r17
    149c:	06 c0       	rjmp	.+12     	; 0x14aa <fputc+0x4a>
    149e:	e8 85       	ldd	r30, Y+8	; 0x08
    14a0:	f9 85       	ldd	r31, Y+9	; 0x09
    14a2:	81 2f       	mov	r24, r17
    14a4:	09 95       	icall
    14a6:	89 2b       	or	r24, r25
    14a8:	29 f7       	brne	.-54     	; 0x1474 <fputc+0x14>
    14aa:	2e 81       	ldd	r18, Y+6	; 0x06
    14ac:	3f 81       	ldd	r19, Y+7	; 0x07
    14ae:	2f 5f       	subi	r18, 0xFF	; 255
    14b0:	3f 4f       	sbci	r19, 0xFF	; 255
    14b2:	3f 83       	std	Y+7, r19	; 0x07
    14b4:	2e 83       	std	Y+6, r18	; 0x06
    14b6:	81 2f       	mov	r24, r17
    14b8:	90 2f       	mov	r25, r16
    14ba:	df 91       	pop	r29
    14bc:	cf 91       	pop	r28
    14be:	1f 91       	pop	r17
    14c0:	0f 91       	pop	r16
    14c2:	08 95       	ret

000014c4 <__ultoa_invert>:
    14c4:	fa 01       	movw	r30, r20
    14c6:	aa 27       	eor	r26, r26
    14c8:	28 30       	cpi	r18, 0x08	; 8
    14ca:	51 f1       	breq	.+84     	; 0x1520 <__ultoa_invert+0x5c>
    14cc:	20 31       	cpi	r18, 0x10	; 16
    14ce:	81 f1       	breq	.+96     	; 0x1530 <__ultoa_invert+0x6c>
    14d0:	e8 94       	clt
    14d2:	6f 93       	push	r22
    14d4:	6e 7f       	andi	r22, 0xFE	; 254
    14d6:	6e 5f       	subi	r22, 0xFE	; 254
    14d8:	7f 4f       	sbci	r23, 0xFF	; 255
    14da:	8f 4f       	sbci	r24, 0xFF	; 255
    14dc:	9f 4f       	sbci	r25, 0xFF	; 255
    14de:	af 4f       	sbci	r26, 0xFF	; 255
    14e0:	b1 e0       	ldi	r27, 0x01	; 1
    14e2:	3e d0       	rcall	.+124    	; 0x1560 <__ultoa_invert+0x9c>
    14e4:	b4 e0       	ldi	r27, 0x04	; 4
    14e6:	3c d0       	rcall	.+120    	; 0x1560 <__ultoa_invert+0x9c>
    14e8:	67 0f       	add	r22, r23
    14ea:	78 1f       	adc	r23, r24
    14ec:	89 1f       	adc	r24, r25
    14ee:	9a 1f       	adc	r25, r26
    14f0:	a1 1d       	adc	r26, r1
    14f2:	68 0f       	add	r22, r24
    14f4:	79 1f       	adc	r23, r25
    14f6:	8a 1f       	adc	r24, r26
    14f8:	91 1d       	adc	r25, r1
    14fa:	a1 1d       	adc	r26, r1
    14fc:	6a 0f       	add	r22, r26
    14fe:	71 1d       	adc	r23, r1
    1500:	81 1d       	adc	r24, r1
    1502:	91 1d       	adc	r25, r1
    1504:	a1 1d       	adc	r26, r1
    1506:	20 d0       	rcall	.+64     	; 0x1548 <__ultoa_invert+0x84>
    1508:	09 f4       	brne	.+2      	; 0x150c <__ultoa_invert+0x48>
    150a:	68 94       	set
    150c:	3f 91       	pop	r19
    150e:	2a e0       	ldi	r18, 0x0A	; 10
    1510:	26 9f       	mul	r18, r22
    1512:	11 24       	eor	r1, r1
    1514:	30 19       	sub	r19, r0
    1516:	30 5d       	subi	r19, 0xD0	; 208
    1518:	31 93       	st	Z+, r19
    151a:	de f6       	brtc	.-74     	; 0x14d2 <__ultoa_invert+0xe>
    151c:	cf 01       	movw	r24, r30
    151e:	08 95       	ret
    1520:	46 2f       	mov	r20, r22
    1522:	47 70       	andi	r20, 0x07	; 7
    1524:	40 5d       	subi	r20, 0xD0	; 208
    1526:	41 93       	st	Z+, r20
    1528:	b3 e0       	ldi	r27, 0x03	; 3
    152a:	0f d0       	rcall	.+30     	; 0x154a <__ultoa_invert+0x86>
    152c:	c9 f7       	brne	.-14     	; 0x1520 <__ultoa_invert+0x5c>
    152e:	f6 cf       	rjmp	.-20     	; 0x151c <__ultoa_invert+0x58>
    1530:	46 2f       	mov	r20, r22
    1532:	4f 70       	andi	r20, 0x0F	; 15
    1534:	40 5d       	subi	r20, 0xD0	; 208
    1536:	4a 33       	cpi	r20, 0x3A	; 58
    1538:	18 f0       	brcs	.+6      	; 0x1540 <__ultoa_invert+0x7c>
    153a:	49 5d       	subi	r20, 0xD9	; 217
    153c:	31 fd       	sbrc	r19, 1
    153e:	40 52       	subi	r20, 0x20	; 32
    1540:	41 93       	st	Z+, r20
    1542:	02 d0       	rcall	.+4      	; 0x1548 <__ultoa_invert+0x84>
    1544:	a9 f7       	brne	.-22     	; 0x1530 <__ultoa_invert+0x6c>
    1546:	ea cf       	rjmp	.-44     	; 0x151c <__ultoa_invert+0x58>
    1548:	b4 e0       	ldi	r27, 0x04	; 4
    154a:	a6 95       	lsr	r26
    154c:	97 95       	ror	r25
    154e:	87 95       	ror	r24
    1550:	77 95       	ror	r23
    1552:	67 95       	ror	r22
    1554:	ba 95       	dec	r27
    1556:	c9 f7       	brne	.-14     	; 0x154a <__ultoa_invert+0x86>
    1558:	00 97       	sbiw	r24, 0x00	; 0
    155a:	61 05       	cpc	r22, r1
    155c:	71 05       	cpc	r23, r1
    155e:	08 95       	ret
    1560:	9b 01       	movw	r18, r22
    1562:	ac 01       	movw	r20, r24
    1564:	0a 2e       	mov	r0, r26
    1566:	06 94       	lsr	r0
    1568:	57 95       	ror	r21
    156a:	47 95       	ror	r20
    156c:	37 95       	ror	r19
    156e:	27 95       	ror	r18
    1570:	ba 95       	dec	r27
    1572:	c9 f7       	brne	.-14     	; 0x1566 <__ultoa_invert+0xa2>
    1574:	62 0f       	add	r22, r18
    1576:	73 1f       	adc	r23, r19
    1578:	84 1f       	adc	r24, r20
    157a:	95 1f       	adc	r25, r21
    157c:	a0 1d       	adc	r26, r0
    157e:	08 95       	ret

00001580 <_exit>:
    1580:	f8 94       	cli

00001582 <__stop_program>:
    1582:	ff cf       	rjmp	.-2      	; 0x1582 <__stop_program>
